Archive member included to satisfy reference by file (symbol)

c:/siliconlabs/simplicitystudio/v5/developer/toolchains/gnu_arm/10.3_2021.10/bin/../lib/gcc/arm-none-eabi/10.3.1/thumb/v8-m.main+fp/hard\libgcc.a(_aeabi_ldivmod.o)
                              ./gecko_sdk_4.3.0/platform/emlib/src/em_usart.o (__aeabi_ldivmod)
c:/siliconlabs/simplicitystudio/v5/developer/toolchains/gnu_arm/10.3_2021.10/bin/../lib/gcc/arm-none-eabi/10.3.1/thumb/v8-m.main+fp/hard\libgcc.a(_aeabi_uldivmod.o)
                              ./gecko_sdk_4.3.0/platform/emlib/src/em_usart.o (__aeabi_uldivmod)
c:/siliconlabs/simplicitystudio/v5/developer/toolchains/gnu_arm/10.3_2021.10/bin/../lib/gcc/arm-none-eabi/10.3.1/thumb/v8-m.main+fp/hard\libgcc.a(_udivmoddi4.o)
                              c:/siliconlabs/simplicitystudio/v5/developer/toolchains/gnu_arm/10.3_2021.10/bin/../lib/gcc/arm-none-eabi/10.3.1/thumb/v8-m.main+fp/hard\libgcc.a(_aeabi_ldivmod.o) (__udivmoddi4)
c:/siliconlabs/simplicitystudio/v5/developer/toolchains/gnu_arm/10.3_2021.10/bin/../lib/gcc/arm-none-eabi/10.3.1/thumb/v8-m.main+fp/hard\libgcc.a(_dvmd_tls.o)
                              c:/siliconlabs/simplicitystudio/v5/developer/toolchains/gnu_arm/10.3_2021.10/bin/../lib/gcc/arm-none-eabi/10.3.1/thumb/v8-m.main+fp/hard\libgcc.a(_aeabi_ldivmod.o) (__aeabi_ldiv0)
c:/siliconlabs/simplicitystudio/v5/developer/toolchains/gnu_arm/10.3_2021.10/bin/../lib/gcc/arm-none-eabi/10.3.1/../../../../arm-none-eabi/lib/thumb/v8-m.main+fp/hard\libc_nano.a(lib_a-exit.o)
                              c:/siliconlabs/simplicitystudio/v5/developer/toolchains/gnu_arm/10.3_2021.10/bin/../lib/gcc/arm-none-eabi/10.3.1/../../../../arm-none-eabi/lib/thumb/v8-m.main+fp/hard/crt0.o (exit)
c:/siliconlabs/simplicitystudio/v5/developer/toolchains/gnu_arm/10.3_2021.10/bin/../lib/gcc/arm-none-eabi/10.3.1/../../../../arm-none-eabi/lib/thumb/v8-m.main+fp/hard\libc_nano.a(lib_a-impure.o)
                              c:/siliconlabs/simplicitystudio/v5/developer/toolchains/gnu_arm/10.3_2021.10/bin/../lib/gcc/arm-none-eabi/10.3.1/../../../../arm-none-eabi/lib/thumb/v8-m.main+fp/hard\libc_nano.a(lib_a-exit.o) (_global_impure_ptr)
c:/siliconlabs/simplicitystudio/v5/developer/toolchains/gnu_arm/10.3_2021.10/bin/../lib/gcc/arm-none-eabi/10.3.1/../../../../arm-none-eabi/lib/thumb/v8-m.main+fp/hard\libc_nano.a(lib_a-init.o)
                              c:/siliconlabs/simplicitystudio/v5/developer/toolchains/gnu_arm/10.3_2021.10/bin/../lib/gcc/arm-none-eabi/10.3.1/../../../../arm-none-eabi/lib/thumb/v8-m.main+fp/hard/crt0.o (__libc_init_array)
c:/siliconlabs/simplicitystudio/v5/developer/toolchains/gnu_arm/10.3_2021.10/bin/../lib/gcc/arm-none-eabi/10.3.1/../../../../arm-none-eabi/lib/thumb/v8-m.main+fp/hard\libc_nano.a(lib_a-memcpy-stub.o)
                              ./gecko_sdk_4.3.0/platform/middleware/glib/dmd/display/dmd_memlcd.o (memcpy)
c:/siliconlabs/simplicitystudio/v5/developer/toolchains/gnu_arm/10.3_2021.10/bin/../lib/gcc/arm-none-eabi/10.3.1/../../../../arm-none-eabi/lib/thumb/v8-m.main+fp/hard\libc_nano.a(lib_a-memset.o)
                              c:/siliconlabs/simplicitystudio/v5/developer/toolchains/gnu_arm/10.3_2021.10/bin/../lib/gcc/arm-none-eabi/10.3.1/../../../../arm-none-eabi/lib/thumb/v8-m.main+fp/hard/crt0.o (memset)
c:/siliconlabs/simplicitystudio/v5/developer/toolchains/gnu_arm/10.3_2021.10/bin/../lib/gcc/arm-none-eabi/10.3.1/../../../../arm-none-eabi/lib/thumb/v8-m.main+fp/hard\libc_nano.a(lib_a-sprintf.o)
                              ./Handle_event/TFT.o (sprintf)
c:/siliconlabs/simplicitystudio/v5/developer/toolchains/gnu_arm/10.3_2021.10/bin/../lib/gcc/arm-none-eabi/10.3.1/../../../../arm-none-eabi/lib/thumb/v8-m.main+fp/hard\libc_nano.a(lib_a-strlen.o)
                              ./gecko_sdk_4.3.0/platform/middleware/glib/glib/glib_string.o (strlen)
c:/siliconlabs/simplicitystudio/v5/developer/toolchains/gnu_arm/10.3_2021.10/bin/../lib/gcc/arm-none-eabi/10.3.1/../../../../arm-none-eabi/lib/thumb/v8-m.main+fp/hard\libc_nano.a(lib_a-nano-svfprintf.o)
                              c:/siliconlabs/simplicitystudio/v5/developer/toolchains/gnu_arm/10.3_2021.10/bin/../lib/gcc/arm-none-eabi/10.3.1/../../../../arm-none-eabi/lib/thumb/v8-m.main+fp/hard\libc_nano.a(lib_a-sprintf.o) (_svfprintf_r)
c:/siliconlabs/simplicitystudio/v5/developer/toolchains/gnu_arm/10.3_2021.10/bin/../lib/gcc/arm-none-eabi/10.3.1/../../../../arm-none-eabi/lib/thumb/v8-m.main+fp/hard\libc_nano.a(lib_a-nano-vfprintf_i.o)
                              c:/siliconlabs/simplicitystudio/v5/developer/toolchains/gnu_arm/10.3_2021.10/bin/../lib/gcc/arm-none-eabi/10.3.1/../../../../arm-none-eabi/lib/thumb/v8-m.main+fp/hard\libc_nano.a(lib_a-nano-svfprintf.o) (_printf_i)
c:/siliconlabs/simplicitystudio/v5/developer/toolchains/gnu_arm/10.3_2021.10/bin/../lib/gcc/arm-none-eabi/10.3.1/../../../../arm-none-eabi/lib/thumb/v8-m.main+fp/hard\libc_nano.a(lib_a-memchr-stub.o)
                              c:/siliconlabs/simplicitystudio/v5/developer/toolchains/gnu_arm/10.3_2021.10/bin/../lib/gcc/arm-none-eabi/10.3.1/../../../../arm-none-eabi/lib/thumb/v8-m.main+fp/hard\libc_nano.a(lib_a-nano-svfprintf.o) (memchr)
c:/siliconlabs/simplicitystudio/v5/developer/toolchains/gnu_arm/10.3_2021.10/bin/../lib/gcc/arm-none-eabi/10.3.1/../../../../arm-none-eabi/lib/thumb/v8-m.main+fp/hard\libc_nano.a(lib_a-memmove.o)
                              c:/siliconlabs/simplicitystudio/v5/developer/toolchains/gnu_arm/10.3_2021.10/bin/../lib/gcc/arm-none-eabi/10.3.1/../../../../arm-none-eabi/lib/thumb/v8-m.main+fp/hard\libc_nano.a(lib_a-nano-svfprintf.o) (memmove)
c:/siliconlabs/simplicitystudio/v5/developer/toolchains/gnu_arm/10.3_2021.10/bin/../lib/gcc/arm-none-eabi/10.3.1/../../../../arm-none-eabi/lib/thumb/v8-m.main+fp/hard\libc_nano.a(lib_a-nano-freer.o)
                              c:/siliconlabs/simplicitystudio/v5/developer/toolchains/gnu_arm/10.3_2021.10/bin/../lib/gcc/arm-none-eabi/10.3.1/../../../../arm-none-eabi/lib/thumb/v8-m.main+fp/hard\libc_nano.a(lib_a-nano-svfprintf.o) (_free_r)
c:/siliconlabs/simplicitystudio/v5/developer/toolchains/gnu_arm/10.3_2021.10/bin/../lib/gcc/arm-none-eabi/10.3.1/../../../../arm-none-eabi/lib/thumb/v8-m.main+fp/hard\libc_nano.a(lib_a-nano-mallocr.o)
                              c:/siliconlabs/simplicitystudio/v5/developer/toolchains/gnu_arm/10.3_2021.10/bin/../lib/gcc/arm-none-eabi/10.3.1/../../../../arm-none-eabi/lib/thumb/v8-m.main+fp/hard\libc_nano.a(lib_a-nano-svfprintf.o) (_malloc_r)
c:/siliconlabs/simplicitystudio/v5/developer/toolchains/gnu_arm/10.3_2021.10/bin/../lib/gcc/arm-none-eabi/10.3.1/../../../../arm-none-eabi/lib/thumb/v8-m.main+fp/hard\libc_nano.a(lib_a-nano-reallocr.o)
                              c:/siliconlabs/simplicitystudio/v5/developer/toolchains/gnu_arm/10.3_2021.10/bin/../lib/gcc/arm-none-eabi/10.3.1/../../../../arm-none-eabi/lib/thumb/v8-m.main+fp/hard\libc_nano.a(lib_a-nano-svfprintf.o) (_realloc_r)
c:/siliconlabs/simplicitystudio/v5/developer/toolchains/gnu_arm/10.3_2021.10/bin/../lib/gcc/arm-none-eabi/10.3.1/../../../../arm-none-eabi/lib/thumb/v8-m.main+fp/hard\libc_nano.a(lib_a-sbrkr.o)
                              c:/siliconlabs/simplicitystudio/v5/developer/toolchains/gnu_arm/10.3_2021.10/bin/../lib/gcc/arm-none-eabi/10.3.1/../../../../arm-none-eabi/lib/thumb/v8-m.main+fp/hard\libc_nano.a(lib_a-nano-mallocr.o) (_sbrk_r)
c:/siliconlabs/simplicitystudio/v5/developer/toolchains/gnu_arm/10.3_2021.10/bin/../lib/gcc/arm-none-eabi/10.3.1/../../../../arm-none-eabi/lib/thumb/v8-m.main+fp/hard\libc_nano.a(lib_a-mlock.o)
                              c:/siliconlabs/simplicitystudio/v5/developer/toolchains/gnu_arm/10.3_2021.10/bin/../lib/gcc/arm-none-eabi/10.3.1/../../../../arm-none-eabi/lib/thumb/v8-m.main+fp/hard\libc_nano.a(lib_a-nano-freer.o) (__malloc_lock)
c:/siliconlabs/simplicitystudio/v5/developer/toolchains/gnu_arm/10.3_2021.10/bin/../lib/gcc/arm-none-eabi/10.3.1/../../../../arm-none-eabi/lib/thumb/v8-m.main+fp/hard\libc_nano.a(lib_a-nano-msizer.o)
                              c:/siliconlabs/simplicitystudio/v5/developer/toolchains/gnu_arm/10.3_2021.10/bin/../lib/gcc/arm-none-eabi/10.3.1/../../../../arm-none-eabi/lib/thumb/v8-m.main+fp/hard\libc_nano.a(lib_a-nano-reallocr.o) (_malloc_usable_size_r)
c:/siliconlabs/simplicitystudio/v5/developer/toolchains/gnu_arm/10.3_2021.10/bin/../lib/gcc/arm-none-eabi/10.3.1/../../../../arm-none-eabi/lib/thumb/v8-m.main+fp/hard\libc_nano.a(lib_a-reent.o)
                              c:/siliconlabs/simplicitystudio/v5/developer/toolchains/gnu_arm/10.3_2021.10/bin/../lib/gcc/arm-none-eabi/10.3.1/../../../../arm-none-eabi/lib/thumb/v8-m.main+fp/hard\libc_nano.a(lib_a-sbrkr.o) (errno)
c:/siliconlabs/simplicitystudio/v5/developer/toolchains/gnu_arm/10.3_2021.10/bin/../lib/gcc/arm-none-eabi/10.3.1/../../../../arm-none-eabi/lib/thumb/v8-m.main+fp/hard\libc_nano.a(lib_a-lock.o)
                              c:/siliconlabs/simplicitystudio/v5/developer/toolchains/gnu_arm/10.3_2021.10/bin/../lib/gcc/arm-none-eabi/10.3.1/../../../../arm-none-eabi/lib/thumb/v8-m.main+fp/hard\libc_nano.a(lib_a-mlock.o) (__retarget_lock_acquire_recursive)
c:/siliconlabs/simplicitystudio/v5/developer/toolchains/gnu_arm/10.3_2021.10/bin/../lib/gcc/arm-none-eabi/10.3.1/../../../../arm-none-eabi/lib/thumb/v8-m.main+fp/hard\libnosys.a(_exit.o)
                              c:/siliconlabs/simplicitystudio/v5/developer/toolchains/gnu_arm/10.3_2021.10/bin/../lib/gcc/arm-none-eabi/10.3.1/../../../../arm-none-eabi/lib/thumb/v8-m.main+fp/hard\libc_nano.a(lib_a-exit.o) (_exit)

Discarded input sections

 .text          0x00000000        0x0 c:/siliconlabs/simplicitystudio/v5/developer/toolchains/gnu_arm/10.3_2021.10/bin/../lib/gcc/arm-none-eabi/10.3.1/thumb/v8-m.main+fp/hard/crti.o
 .data          0x00000000        0x0 c:/siliconlabs/simplicitystudio/v5/developer/toolchains/gnu_arm/10.3_2021.10/bin/../lib/gcc/arm-none-eabi/10.3.1/thumb/v8-m.main+fp/hard/crti.o
 .bss           0x00000000        0x0 c:/siliconlabs/simplicitystudio/v5/developer/toolchains/gnu_arm/10.3_2021.10/bin/../lib/gcc/arm-none-eabi/10.3.1/thumb/v8-m.main+fp/hard/crti.o
 .data          0x00000000        0x4 c:/siliconlabs/simplicitystudio/v5/developer/toolchains/gnu_arm/10.3_2021.10/bin/../lib/gcc/arm-none-eabi/10.3.1/thumb/v8-m.main+fp/hard/crtbegin.o
 .rodata        0x00000000       0x24 c:/siliconlabs/simplicitystudio/v5/developer/toolchains/gnu_arm/10.3_2021.10/bin/../lib/gcc/arm-none-eabi/10.3.1/thumb/v8-m.main+fp/hard/crtbegin.o
 .data          0x00000000        0x0 c:/siliconlabs/simplicitystudio/v5/developer/toolchains/gnu_arm/10.3_2021.10/bin/../lib/gcc/arm-none-eabi/10.3.1/../../../../arm-none-eabi/lib/thumb/v8-m.main+fp/hard/crt0.o
 .bss           0x00000000        0x0 c:/siliconlabs/simplicitystudio/v5/developer/toolchains/gnu_arm/10.3_2021.10/bin/../lib/gcc/arm-none-eabi/10.3.1/../../../../arm-none-eabi/lib/thumb/v8-m.main+fp/hard/crt0.o
 .ARM.extab     0x00000000        0x0 c:/siliconlabs/simplicitystudio/v5/developer/toolchains/gnu_arm/10.3_2021.10/bin/../lib/gcc/arm-none-eabi/10.3.1/../../../../arm-none-eabi/lib/thumb/v8-m.main+fp/hard/crt0.o
 .text          0x00000000        0x0 ./Handle_event/I2C_handle.o
 .data          0x00000000        0x0 ./Handle_event/I2C_handle.o
 .bss           0x00000000        0x0 ./Handle_event/I2C_handle.o
 .text          0x00000000        0x0 ./Handle_event/TFT.o
 .data          0x00000000        0x0 ./Handle_event/TFT.o
 .bss           0x00000000        0x0 ./Handle_event/TFT.o
 .text          0x00000000        0x0 ./Handle_event/blink.o
 .data          0x00000000        0x0 ./Handle_event/blink.o
 .bss           0x00000000        0x0 ./Handle_event/blink.o
 .text          0x00000000        0x0 ./Handle_event/button.o
 .data          0x00000000        0x0 ./Handle_event/button.o
 .bss           0x00000000        0x0 ./Handle_event/button.o
 .text.button_TASK
                0x00000000       0x60 ./Handle_event/button.o
 .debug_info    0x00000000      0x340 ./Handle_event/button.o
 .debug_abbrev  0x00000000      0x16c ./Handle_event/button.o
 .debug_loc     0x00000000       0x5a ./Handle_event/button.o
 .debug_aranges
                0x00000000       0x20 ./Handle_event/button.o
 .debug_ranges  0x00000000       0x10 ./Handle_event/button.o
 .debug_line    0x00000000      0x41a ./Handle_event/button.o
 .debug_str     0x00000000      0x344 ./Handle_event/button.o
 .comment       0x00000000       0x4a ./Handle_event/button.o
 .debug_frame   0x00000000       0x2c ./Handle_event/button.o
 .ARM.attributes
                0x00000000       0x3a ./Handle_event/button.o
 .text          0x00000000        0x0 ./RTOS_test.o
 .data          0x00000000        0x0 ./RTOS_test.o
 .bss           0x00000000        0x0 ./RTOS_test.o
 .bss.R_sensor_val
                0x00000000        0x8 ./RTOS_test.o
 .text          0x00000000        0x0 ./app.o
 .data          0x00000000        0x0 ./app.o
 .bss           0x00000000        0x0 ./app.o
 .text.app_process_action
                0x00000000        0x2 ./app.o
 .text          0x00000000        0x0 ./main.o
 .data          0x00000000        0x0 ./main.o
 .bss           0x00000000        0x0 ./main.o
 .text          0x00000000        0x0 ./autogen/sl_board_default_init.o
 .data          0x00000000        0x0 ./autogen/sl_board_default_init.o
 .bss           0x00000000        0x0 ./autogen/sl_board_default_init.o
 .text          0x00000000        0x0 ./autogen/sl_device_init_clocks.o
 .data          0x00000000        0x0 ./autogen/sl_device_init_clocks.o
 .bss           0x00000000        0x0 ./autogen/sl_device_init_clocks.o
 .text          0x00000000        0x0 ./autogen/sl_event_handler.o
 .data          0x00000000        0x0 ./autogen/sl_event_handler.o
 .bss           0x00000000        0x0 ./autogen/sl_event_handler.o
 .text          0x00000000        0x0 ./autogen/sl_i2cspm_init.o
 .data          0x00000000        0x0 ./autogen/sl_i2cspm_init.o
 .bss           0x00000000        0x0 ./autogen/sl_i2cspm_init.o
 .text          0x00000000        0x0 ./autogen/sl_simple_button_instances.o
 .data          0x00000000        0x0 ./autogen/sl_simple_button_instances.o
 .bss           0x00000000        0x0 ./autogen/sl_simple_button_instances.o
 .text.sl_simple_button_poll_instances
                0x00000000       0x1c ./autogen/sl_simple_button_instances.o
 .data.sl_simple_button_array
                0x00000000        0x8 ./autogen/sl_simple_button_instances.o
 .rodata.simple_button_count
                0x00000000        0x1 ./autogen/sl_simple_button_instances.o
 .text          0x00000000        0x0 ./autogen/sl_simple_led_instances.o
 .data          0x00000000        0x0 ./autogen/sl_simple_led_instances.o
 .bss           0x00000000        0x0 ./autogen/sl_simple_led_instances.o
 .data.sl_simple_led_array
                0x00000000        0x8 ./autogen/sl_simple_led_instances.o
 .text          0x00000000        0x0 ./gecko_sdk_4.3.0/app/bluetooth/common/sensor_rht/sl_sensor_rht.o
 .data          0x00000000        0x0 ./gecko_sdk_4.3.0/app/bluetooth/common/sensor_rht/sl_sensor_rht.o
 .bss           0x00000000        0x0 ./gecko_sdk_4.3.0/app/bluetooth/common/sensor_rht/sl_sensor_rht.o
 .text.sl_sensor_rht_init
                0x00000000       0x2c ./gecko_sdk_4.3.0/app/bluetooth/common/sensor_rht/sl_sensor_rht.o
 .text.sl_sensor_rht_deinit
                0x00000000       0x14 ./gecko_sdk_4.3.0/app/bluetooth/common/sensor_rht/sl_sensor_rht.o
 .text.sl_sensor_rht_get
                0x00000000       0x30 ./gecko_sdk_4.3.0/app/bluetooth/common/sensor_rht/sl_sensor_rht.o
 .bss.initialized
                0x00000000        0x1 ./gecko_sdk_4.3.0/app/bluetooth/common/sensor_rht/sl_sensor_rht.o
 .debug_info    0x00000000      0x740 ./gecko_sdk_4.3.0/app/bluetooth/common/sensor_rht/sl_sensor_rht.o
 .debug_abbrev  0x00000000      0x1a7 ./gecko_sdk_4.3.0/app/bluetooth/common/sensor_rht/sl_sensor_rht.o
 .debug_loc     0x00000000      0x19f ./gecko_sdk_4.3.0/app/bluetooth/common/sensor_rht/sl_sensor_rht.o
 .debug_aranges
                0x00000000       0x30 ./gecko_sdk_4.3.0/app/bluetooth/common/sensor_rht/sl_sensor_rht.o
 .debug_ranges  0x00000000       0x38 ./gecko_sdk_4.3.0/app/bluetooth/common/sensor_rht/sl_sensor_rht.o
 .debug_line    0x00000000      0x47b ./gecko_sdk_4.3.0/app/bluetooth/common/sensor_rht/sl_sensor_rht.o
 .debug_str     0x00000000      0x67f ./gecko_sdk_4.3.0/app/bluetooth/common/sensor_rht/sl_sensor_rht.o
 .comment       0x00000000       0x4a ./gecko_sdk_4.3.0/app/bluetooth/common/sensor_rht/sl_sensor_rht.o
 .debug_frame   0x00000000       0x64 ./gecko_sdk_4.3.0/app/bluetooth/common/sensor_rht/sl_sensor_rht.o
 .ARM.attributes
                0x00000000       0x3a ./gecko_sdk_4.3.0/app/bluetooth/common/sensor_rht/sl_sensor_rht.o
 .text          0x00000000        0x0 ./gecko_sdk_4.3.0/app/bluetooth/common/sensor_select/sl_sensor_select.o
 .data          0x00000000        0x0 ./gecko_sdk_4.3.0/app/bluetooth/common/sensor_select/sl_sensor_select.o
 .bss           0x00000000        0x0 ./gecko_sdk_4.3.0/app/bluetooth/common/sensor_select/sl_sensor_select.o
 .text.sl_sensor_select
                0x00000000       0x28 ./gecko_sdk_4.3.0/app/bluetooth/common/sensor_select/sl_sensor_select.o
 .debug_info    0x00000000      0x5c9 ./gecko_sdk_4.3.0/app/bluetooth/common/sensor_select/sl_sensor_select.o
 .debug_abbrev  0x00000000      0x10a ./gecko_sdk_4.3.0/app/bluetooth/common/sensor_select/sl_sensor_select.o
 .debug_loc     0x00000000       0x6f ./gecko_sdk_4.3.0/app/bluetooth/common/sensor_select/sl_sensor_select.o
 .debug_aranges
                0x00000000       0x20 ./gecko_sdk_4.3.0/app/bluetooth/common/sensor_select/sl_sensor_select.o
 .debug_ranges  0x00000000       0x10 ./gecko_sdk_4.3.0/app/bluetooth/common/sensor_select/sl_sensor_select.o
 .debug_line    0x00000000      0x30b ./gecko_sdk_4.3.0/app/bluetooth/common/sensor_select/sl_sensor_select.o
 .debug_str     0x00000000      0x5f2 ./gecko_sdk_4.3.0/app/bluetooth/common/sensor_select/sl_sensor_select.o
 .comment       0x00000000       0x4a ./gecko_sdk_4.3.0/app/bluetooth/common/sensor_select/sl_sensor_select.o
 .debug_frame   0x00000000       0x20 ./gecko_sdk_4.3.0/app/bluetooth/common/sensor_select/sl_sensor_select.o
 .ARM.attributes
                0x00000000       0x3a ./gecko_sdk_4.3.0/app/bluetooth/common/sensor_select/sl_sensor_select.o
 .text          0x00000000        0x0 ./gecko_sdk_4.3.0/hardware/board/src/sl_board_control_gpio.o
 .data          0x00000000        0x0 ./gecko_sdk_4.3.0/hardware/board/src/sl_board_control_gpio.o
 .bss           0x00000000        0x0 ./gecko_sdk_4.3.0/hardware/board/src/sl_board_control_gpio.o
 .text.sl_board_enable_vcom
                0x00000000       0x12 ./gecko_sdk_4.3.0/hardware/board/src/sl_board_control_gpio.o
 .text.sl_board_disable_display
                0x00000000       0x12 ./gecko_sdk_4.3.0/hardware/board/src/sl_board_control_gpio.o
 .text.sl_board_disable_sensor
                0x00000000       0x60 ./gecko_sdk_4.3.0/hardware/board/src/sl_board_control_gpio.o
 .text.sl_board_enable_memory
                0x00000000       0x28 ./gecko_sdk_4.3.0/hardware/board/src/sl_board_control_gpio.o
 .text.sl_board_disable_memory
                0x00000000       0x28 ./gecko_sdk_4.3.0/hardware/board/src/sl_board_control_gpio.o
 .text.sl_board_enable_oscillator
                0x00000000       0x1c ./gecko_sdk_4.3.0/hardware/board/src/sl_board_control_gpio.o
 .text.sl_board_disable_oscillator
                0x00000000       0x1c ./gecko_sdk_4.3.0/hardware/board/src/sl_board_control_gpio.o
 .text          0x00000000        0x0 ./gecko_sdk_4.3.0/hardware/board/src/sl_board_init.o
 .data          0x00000000        0x0 ./gecko_sdk_4.3.0/hardware/board/src/sl_board_init.o
 .bss           0x00000000        0x0 ./gecko_sdk_4.3.0/hardware/board/src/sl_board_init.o
 .text          0x00000000        0x0 ./gecko_sdk_4.3.0/hardware/driver/configuration_over_swo/src/sl_cos.o
 .data          0x00000000        0x0 ./gecko_sdk_4.3.0/hardware/driver/configuration_over_swo/src/sl_cos.o
 .bss           0x00000000        0x0 ./gecko_sdk_4.3.0/hardware/driver/configuration_over_swo/src/sl_cos.o
 .text.sli_cos_swo_itm_8_write.constprop.0.isra.0
                0x00000000       0x60 ./gecko_sdk_4.3.0/hardware/driver/configuration_over_swo/src/sl_cos.o
 .text.sl_cos_config_pti
                0x00000000       0x26 ./gecko_sdk_4.3.0/hardware/driver/configuration_over_swo/src/sl_cos.o
 .text.sl_cos_config_vcom
                0x00000000       0x1e ./gecko_sdk_4.3.0/hardware/driver/configuration_over_swo/src/sl_cos.o
 .text          0x00000000        0x0 ./gecko_sdk_4.3.0/hardware/driver/joystick/src/sl_joystick.o
 .data          0x00000000        0x0 ./gecko_sdk_4.3.0/hardware/driver/joystick/src/sl_joystick.o
 .bss           0x00000000        0x0 ./gecko_sdk_4.3.0/hardware/driver/joystick/src/sl_joystick.o
 .text.sl_joystick_init
                0x00000000      0x1d8 ./gecko_sdk_4.3.0/hardware/driver/joystick/src/sl_joystick.o
 .text.sl_joystick_start
                0x00000000       0x24 ./gecko_sdk_4.3.0/hardware/driver/joystick/src/sl_joystick.o
 .text.sl_joystick_stop
                0x00000000       0x18 ./gecko_sdk_4.3.0/hardware/driver/joystick/src/sl_joystick.o
 .text.sl_joystick_get_position
                0x00000000       0x74 ./gecko_sdk_4.3.0/hardware/driver/joystick/src/sl_joystick.o
 .rodata        0x00000000       0x28 ./gecko_sdk_4.3.0/hardware/driver/joystick/src/sl_joystick.o
 .debug_info    0x00000000     0x3132 ./gecko_sdk_4.3.0/hardware/driver/joystick/src/sl_joystick.o
 .debug_abbrev  0x00000000      0x31c ./gecko_sdk_4.3.0/hardware/driver/joystick/src/sl_joystick.o
 .debug_loc     0x00000000      0x430 ./gecko_sdk_4.3.0/hardware/driver/joystick/src/sl_joystick.o
 .debug_aranges
                0x00000000       0x38 ./gecko_sdk_4.3.0/hardware/driver/joystick/src/sl_joystick.o
 .debug_ranges  0x00000000       0xa8 ./gecko_sdk_4.3.0/hardware/driver/joystick/src/sl_joystick.o
 .debug_line    0x00000000      0x6b8 ./gecko_sdk_4.3.0/hardware/driver/joystick/src/sl_joystick.o
 .debug_str     0x00000000     0x317e ./gecko_sdk_4.3.0/hardware/driver/joystick/src/sl_joystick.o
 .comment       0x00000000       0x4a ./gecko_sdk_4.3.0/hardware/driver/joystick/src/sl_joystick.o
 .debug_frame   0x00000000       0x78 ./gecko_sdk_4.3.0/hardware/driver/joystick/src/sl_joystick.o
 .ARM.attributes
                0x00000000       0x3a ./gecko_sdk_4.3.0/hardware/driver/joystick/src/sl_joystick.o
 .text          0x00000000        0x0 ./gecko_sdk_4.3.0/hardware/driver/memlcd/src/memlcd_usart/sl_memlcd_spi.o
 .data          0x00000000        0x0 ./gecko_sdk_4.3.0/hardware/driver/memlcd/src/memlcd_usart/sl_memlcd_spi.o
 .bss           0x00000000        0x0 ./gecko_sdk_4.3.0/hardware/driver/memlcd/src/memlcd_usart/sl_memlcd_spi.o
 .text.sli_memlcd_spi_shutdown
                0x00000000       0x18 ./gecko_sdk_4.3.0/hardware/driver/memlcd/src/memlcd_usart/sl_memlcd_spi.o
 .text          0x00000000        0x0 ./gecko_sdk_4.3.0/hardware/driver/memlcd/src/sl_memlcd.o
 .data          0x00000000        0x0 ./gecko_sdk_4.3.0/hardware/driver/memlcd/src/sl_memlcd.o
 .bss           0x00000000        0x0 ./gecko_sdk_4.3.0/hardware/driver/memlcd/src/sl_memlcd.o
 .text.sl_memlcd_refresh
                0x00000000       0x14 ./gecko_sdk_4.3.0/hardware/driver/memlcd/src/sl_memlcd.o
 .text.sl_memlcd_power_on
                0x00000000       0x10 ./gecko_sdk_4.3.0/hardware/driver/memlcd/src/sl_memlcd.o
 .text          0x00000000        0x0 ./gecko_sdk_4.3.0/hardware/driver/memlcd/src/sl_memlcd_display.o
 .data          0x00000000        0x0 ./gecko_sdk_4.3.0/hardware/driver/memlcd/src/sl_memlcd_display.o
 .bss           0x00000000        0x0 ./gecko_sdk_4.3.0/hardware/driver/memlcd/src/sl_memlcd_display.o
 .text          0x00000000        0x0 ./gecko_sdk_4.3.0/hardware/driver/mx25_flash_shutdown/src/sl_mx25_flash_shutdown_usart/sl_mx25_flash_shutdown.o
 .data          0x00000000        0x0 ./gecko_sdk_4.3.0/hardware/driver/mx25_flash_shutdown/src/sl_mx25_flash_shutdown_usart/sl_mx25_flash_shutdown.o
 .bss           0x00000000        0x0 ./gecko_sdk_4.3.0/hardware/driver/mx25_flash_shutdown/src/sl_mx25_flash_shutdown_usart/sl_mx25_flash_shutdown.o
 .text          0x00000000        0x0 ./gecko_sdk_4.3.0/hardware/driver/si70xx/src/sl_si70xx.o
 .data          0x00000000        0x0 ./gecko_sdk_4.3.0/hardware/driver/si70xx/src/sl_si70xx.o
 .bss           0x00000000        0x0 ./gecko_sdk_4.3.0/hardware/driver/si70xx/src/sl_si70xx.o
 .text.sl_si70xx_write_user_register_2.isra.0
                0x00000000       0x3a ./gecko_sdk_4.3.0/hardware/driver/si70xx/src/sl_si70xx.o
 .text.sl_si70xx_get_firmware_revision
                0x00000000       0x4a ./gecko_sdk_4.3.0/hardware/driver/si70xx/src/sl_si70xx.o
 .text.sl_si70xx_start_no_hold_measure_rh_and_temp
                0x00000000       0x3c ./gecko_sdk_4.3.0/hardware/driver/si70xx/src/sl_si70xx.o
 .text.sl_si70xx_read_rh_and_temp
                0x00000000       0x86 ./gecko_sdk_4.3.0/hardware/driver/si70xx/src/sl_si70xx.o
 .text.sl_si7013_measure_analog_voltage
                0x00000000       0x46 ./gecko_sdk_4.3.0/hardware/driver/si70xx/src/sl_si70xx.o
 .text          0x00000000        0x0 ./gecko_sdk_4.3.0/platform/CMSIS/RTOS2/Source/os_systick.o
 .data          0x00000000        0x0 ./gecko_sdk_4.3.0/platform/CMSIS/RTOS2/Source/os_systick.o
 .bss           0x00000000        0x0 ./gecko_sdk_4.3.0/platform/CMSIS/RTOS2/Source/os_systick.o
 .text.OS_Tick_Setup
                0x00000000       0x40 ./gecko_sdk_4.3.0/platform/CMSIS/RTOS2/Source/os_systick.o
 .text.OS_Tick_Enable
                0x00000000       0x28 ./gecko_sdk_4.3.0/platform/CMSIS/RTOS2/Source/os_systick.o
 .text.OS_Tick_Disable
                0x00000000       0x2c ./gecko_sdk_4.3.0/platform/CMSIS/RTOS2/Source/os_systick.o
 .text.OS_Tick_AcknowledgeIRQ
                0x00000000        0x8 ./gecko_sdk_4.3.0/platform/CMSIS/RTOS2/Source/os_systick.o
 .text.OS_Tick_GetIRQn
                0x00000000        0x6 ./gecko_sdk_4.3.0/platform/CMSIS/RTOS2/Source/os_systick.o
 .text.OS_Tick_GetClock
                0x00000000        0xc ./gecko_sdk_4.3.0/platform/CMSIS/RTOS2/Source/os_systick.o
 .text.OS_Tick_GetInterval
                0x00000000        0xa ./gecko_sdk_4.3.0/platform/CMSIS/RTOS2/Source/os_systick.o
 .text.OS_Tick_GetCount
                0x00000000        0xc ./gecko_sdk_4.3.0/platform/CMSIS/RTOS2/Source/os_systick.o
 .text.OS_Tick_GetOverflow
                0x00000000       0x10 ./gecko_sdk_4.3.0/platform/CMSIS/RTOS2/Source/os_systick.o
 .bss.os        0x00000000        0x1 ./gecko_sdk_4.3.0/platform/CMSIS/RTOS2/Source/os_systick.o
 .debug_info    0x00000000      0x804 ./gecko_sdk_4.3.0/platform/CMSIS/RTOS2/Source/os_systick.o
 .debug_abbrev  0x00000000      0x1ae ./gecko_sdk_4.3.0/platform/CMSIS/RTOS2/Source/os_systick.o
 .debug_loc     0x00000000       0x5d ./gecko_sdk_4.3.0/platform/CMSIS/RTOS2/Source/os_systick.o
 .debug_aranges
                0x00000000       0x60 ./gecko_sdk_4.3.0/platform/CMSIS/RTOS2/Source/os_systick.o
 .debug_ranges  0x00000000       0x50 ./gecko_sdk_4.3.0/platform/CMSIS/RTOS2/Source/os_systick.o
 .debug_line    0x00000000      0x421 ./gecko_sdk_4.3.0/platform/CMSIS/RTOS2/Source/os_systick.o
 .debug_str     0x00000000      0x899 ./gecko_sdk_4.3.0/platform/CMSIS/RTOS2/Source/os_systick.o
 .comment       0x00000000       0x4a ./gecko_sdk_4.3.0/platform/CMSIS/RTOS2/Source/os_systick.o
 .debug_frame   0x00000000       0xa0 ./gecko_sdk_4.3.0/platform/CMSIS/RTOS2/Source/os_systick.o
 .ARM.attributes
                0x00000000       0x3a ./gecko_sdk_4.3.0/platform/CMSIS/RTOS2/Source/os_systick.o
 .text          0x00000000        0x0 ./gecko_sdk_4.3.0/platform/Device/SiliconLabs/ZGM23/Source/startup_zgm23.o
 .data          0x00000000        0x0 ./gecko_sdk_4.3.0/platform/Device/SiliconLabs/ZGM23/Source/startup_zgm23.o
 .bss           0x00000000        0x0 ./gecko_sdk_4.3.0/platform/Device/SiliconLabs/ZGM23/Source/startup_zgm23.o
 .text          0x00000000        0x0 ./gecko_sdk_4.3.0/platform/Device/SiliconLabs/ZGM23/Source/system_zgm23.o
 .data          0x00000000        0x0 ./gecko_sdk_4.3.0/platform/Device/SiliconLabs/ZGM23/Source/system_zgm23.o
 .bss           0x00000000        0x0 ./gecko_sdk_4.3.0/platform/Device/SiliconLabs/ZGM23/Source/system_zgm23.o
 .text.SystemHFRCODPLLClockSet
                0x00000000        0xc ./gecko_sdk_4.3.0/platform/Device/SiliconLabs/ZGM23/Source/system_zgm23.o
 .text.SystemLFXOClockSet
                0x00000000        0xc ./gecko_sdk_4.3.0/platform/Device/SiliconLabs/ZGM23/Source/system_zgm23.o
 .text          0x00000000        0x0 ./gecko_sdk_4.3.0/platform/common/src/sl_assert.o
 .data          0x00000000        0x0 ./gecko_sdk_4.3.0/platform/common/src/sl_assert.o
 .bss           0x00000000        0x0 ./gecko_sdk_4.3.0/platform/common/src/sl_assert.o
 .text          0x00000000        0x0 ./gecko_sdk_4.3.0/platform/common/toolchain/src/sl_memory.o
 .data          0x00000000        0x0 ./gecko_sdk_4.3.0/platform/common/toolchain/src/sl_memory.o
 .bss           0x00000000        0x0 ./gecko_sdk_4.3.0/platform/common/toolchain/src/sl_memory.o
 .text.sl_memory_get_stack_region
                0x00000000       0x10 ./gecko_sdk_4.3.0/platform/common/toolchain/src/sl_memory.o
 .text.sl_memory_get_heap_region
                0x00000000       0x14 ./gecko_sdk_4.3.0/platform/common/toolchain/src/sl_memory.o
 .text          0x00000000        0x0 ./gecko_sdk_4.3.0/platform/driver/button/src/sl_button.o
 .data          0x00000000        0x0 ./gecko_sdk_4.3.0/platform/driver/button/src/sl_button.o
 .bss           0x00000000        0x0 ./gecko_sdk_4.3.0/platform/driver/button/src/sl_button.o
 .text.sl_button_poll_step
                0x00000000        0x8 ./gecko_sdk_4.3.0/platform/driver/button/src/sl_button.o
 .text.sl_button_enable
                0x00000000        0x8 ./gecko_sdk_4.3.0/platform/driver/button/src/sl_button.o
 .text.sl_button_disable
                0x00000000        0x8 ./gecko_sdk_4.3.0/platform/driver/button/src/sl_button.o
 .text.sl_button_on_change
                0x00000000        0x2 ./gecko_sdk_4.3.0/platform/driver/button/src/sl_button.o
 .text          0x00000000        0x0 ./gecko_sdk_4.3.0/platform/driver/button/src/sl_simple_button.o
 .data          0x00000000        0x0 ./gecko_sdk_4.3.0/platform/driver/button/src/sl_simple_button.o
 .bss           0x00000000        0x0 ./gecko_sdk_4.3.0/platform/driver/button/src/sl_simple_button.o
 .text          0x00000000        0x0 ./gecko_sdk_4.3.0/platform/driver/debug/src/sl_debug_swo.o
 .data          0x00000000        0x0 ./gecko_sdk_4.3.0/platform/driver/debug/src/sl_debug_swo.o
 .bss           0x00000000        0x0 ./gecko_sdk_4.3.0/platform/driver/debug/src/sl_debug_swo.o
 .text.sl_debug_swo_write_u8
                0x00000000       0x44 ./gecko_sdk_4.3.0/platform/driver/debug/src/sl_debug_swo.o
 .text.sl_debug_swo_write_u16
                0x00000000       0x44 ./gecko_sdk_4.3.0/platform/driver/debug/src/sl_debug_swo.o
 .text.sl_debug_swo_write_u32
                0x00000000       0x44 ./gecko_sdk_4.3.0/platform/driver/debug/src/sl_debug_swo.o
 .text          0x00000000        0x0 ./gecko_sdk_4.3.0/platform/driver/i2cspm/src/sl_i2cspm.o
 .data          0x00000000        0x0 ./gecko_sdk_4.3.0/platform/driver/i2cspm/src/sl_i2cspm.o
 .bss           0x00000000        0x0 ./gecko_sdk_4.3.0/platform/driver/i2cspm/src/sl_i2cspm.o
 .text          0x00000000        0x0 ./gecko_sdk_4.3.0/platform/driver/leddrv/src/sl_led.o
 .data          0x00000000        0x0 ./gecko_sdk_4.3.0/platform/driver/leddrv/src/sl_led.o
 .bss           0x00000000        0x0 ./gecko_sdk_4.3.0/platform/driver/leddrv/src/sl_led.o
 .text.sl_led_turn_on
                0x00000000        0x6 ./gecko_sdk_4.3.0/platform/driver/leddrv/src/sl_led.o
 .text.sl_led_get_state
                0x00000000        0x6 ./gecko_sdk_4.3.0/platform/driver/leddrv/src/sl_led.o
 .text          0x00000000        0x0 ./gecko_sdk_4.3.0/platform/driver/leddrv/src/sl_simple_led.o
 .data          0x00000000        0x0 ./gecko_sdk_4.3.0/platform/driver/leddrv/src/sl_simple_led.o
 .bss           0x00000000        0x0 ./gecko_sdk_4.3.0/platform/driver/leddrv/src/sl_simple_led.o
 .text          0x00000000        0x0 ./gecko_sdk_4.3.0/platform/emdrv/gpiointerrupt/src/gpiointerrupt.o
 .data          0x00000000        0x0 ./gecko_sdk_4.3.0/platform/emdrv/gpiointerrupt/src/gpiointerrupt.o
 .bss           0x00000000        0x0 ./gecko_sdk_4.3.0/platform/emdrv/gpiointerrupt/src/gpiointerrupt.o
 .text          0x00000000        0x0 ./gecko_sdk_4.3.0/platform/emlib/src/em_burtc.o
 .data          0x00000000        0x0 ./gecko_sdk_4.3.0/platform/emlib/src/em_burtc.o
 .bss           0x00000000        0x0 ./gecko_sdk_4.3.0/platform/emlib/src/em_burtc.o
 .text.BURTC_SyncWait
                0x00000000       0x14 ./gecko_sdk_4.3.0/platform/emlib/src/em_burtc.o
 .rodata.BURTC_Init.str1.1
                0x00000000       0x4d ./gecko_sdk_4.3.0/platform/emlib/src/em_burtc.o
 .text.BURTC_Init
                0x00000000       0x88 ./gecko_sdk_4.3.0/platform/emlib/src/em_burtc.o
 .text.BURTC_Enable
                0x00000000       0x44 ./gecko_sdk_4.3.0/platform/emlib/src/em_burtc.o
 .text.BURTC_CompareSet
                0x00000000       0x2c ./gecko_sdk_4.3.0/platform/emlib/src/em_burtc.o
 .text.BURTC_CompareGet
                0x00000000       0x1c ./gecko_sdk_4.3.0/platform/emlib/src/em_burtc.o
 .text.BURTC_CounterReset
                0x00000000       0x20 ./gecko_sdk_4.3.0/platform/emlib/src/em_burtc.o
 .text.BURTC_Reset
                0x00000000       0x4c ./gecko_sdk_4.3.0/platform/emlib/src/em_burtc.o
 .debug_info    0x00000000      0x843 ./gecko_sdk_4.3.0/platform/emlib/src/em_burtc.o
 .debug_abbrev  0x00000000      0x2a1 ./gecko_sdk_4.3.0/platform/emlib/src/em_burtc.o
 .debug_loc     0x00000000      0x1fa ./gecko_sdk_4.3.0/platform/emlib/src/em_burtc.o
 .debug_aranges
                0x00000000       0x50 ./gecko_sdk_4.3.0/platform/emlib/src/em_burtc.o
 .debug_ranges  0x00000000       0x80 ./gecko_sdk_4.3.0/platform/emlib/src/em_burtc.o
 .debug_line    0x00000000      0x645 ./gecko_sdk_4.3.0/platform/emlib/src/em_burtc.o
 .debug_str     0x00000000      0x51d ./gecko_sdk_4.3.0/platform/emlib/src/em_burtc.o
 .comment       0x00000000       0x4a ./gecko_sdk_4.3.0/platform/emlib/src/em_burtc.o
 .debug_frame   0x00000000       0xb4 ./gecko_sdk_4.3.0/platform/emlib/src/em_burtc.o
 .ARM.attributes
                0x00000000       0x3a ./gecko_sdk_4.3.0/platform/emlib/src/em_burtc.o
 .text          0x00000000        0x0 ./gecko_sdk_4.3.0/platform/emlib/src/em_cmu.o
 .data          0x00000000        0x0 ./gecko_sdk_4.3.0/platform/emlib/src/em_cmu.o
 .bss           0x00000000        0x0 ./gecko_sdk_4.3.0/platform/emlib/src/em_cmu.o
 .text.HFRCODPLLDevinfoGet
                0x00000000      0x10c ./gecko_sdk_4.3.0/platform/emlib/src/em_cmu.o
 .text.CMU_CalibrateConfig
                0x00000000       0xe8 ./gecko_sdk_4.3.0/platform/emlib/src/em_cmu.o
 .text.CMU_CalibrateCountGet
                0x00000000       0x1c ./gecko_sdk_4.3.0/platform/emlib/src/em_cmu.o
 .text.CMU_Calibrate
                0x00000000       0x3c ./gecko_sdk_4.3.0/platform/emlib/src/em_cmu.o
 .text.CMU_ClkOutPinConfig
                0x00000000      0x120 ./gecko_sdk_4.3.0/platform/emlib/src/em_cmu.o
 .text.sli_em_cmu_SYSTICEXTCLKENSet
                0x00000000       0x30 ./gecko_sdk_4.3.0/platform/emlib/src/em_cmu.o
 .text.sli_em_cmu_SYSTICEXTCLKENClear
                0x00000000       0x30 ./gecko_sdk_4.3.0/platform/emlib/src/em_cmu.o
 .text.CMU_LF_ClockPrecisionGet
                0x00000000       0x18 ./gecko_sdk_4.3.0/platform/emlib/src/em_cmu.o
 .text.CMU_HF_ClockPrecisionGet
                0x00000000       0x18 ./gecko_sdk_4.3.0/platform/emlib/src/em_cmu.o
 .text.CMU_HFRCODPLLBandGet
                0x00000000        0x4 ./gecko_sdk_4.3.0/platform/emlib/src/em_cmu.o
 .text.CMU_HFXOStartCrystalSharingLeader
                0x00000000       0xa0 ./gecko_sdk_4.3.0/platform/emlib/src/em_cmu.o
 .text.CMU_HFXOCrystalSharingFollowerInit
                0x00000000       0xf8 ./gecko_sdk_4.3.0/platform/emlib/src/em_cmu.o
 .text.CMU_HFXOCTuneSet
                0x00000000       0x90 ./gecko_sdk_4.3.0/platform/emlib/src/em_cmu.o
 .text.CMU_HFXOCTuneGet
                0x00000000       0x54 ./gecko_sdk_4.3.0/platform/emlib/src/em_cmu.o
 .text.CMU_HFXOCTuneDeltaSet
                0x00000000        0xc ./gecko_sdk_4.3.0/platform/emlib/src/em_cmu.o
 .text.CMU_HFXOCoreBiasCurrentCalibrate
                0x00000000       0x78 ./gecko_sdk_4.3.0/platform/emlib/src/em_cmu.o
 .text.CMU_LFXOInit
                0x00000000       0xc4 ./gecko_sdk_4.3.0/platform/emlib/src/em_cmu.o
 .text.CMU_LFXOPrecisionSet
                0x00000000        0xc ./gecko_sdk_4.3.0/platform/emlib/src/em_cmu.o
 .text.CMU_LFXOPrecisionGet
                0x00000000        0xc ./gecko_sdk_4.3.0/platform/emlib/src/em_cmu.o
 .text.CMU_HFXOPrecisionGet
                0x00000000        0xc ./gecko_sdk_4.3.0/platform/emlib/src/em_cmu.o
 .text.CMU_OscillatorTuningGet
                0x00000000       0x74 ./gecko_sdk_4.3.0/platform/emlib/src/em_cmu.o
 .text.CMU_OscillatorTuningSet
                0x00000000      0x15c ./gecko_sdk_4.3.0/platform/emlib/src/em_cmu.o
 .text.CMU_ClockSelectSet
                0x00000000      0x608 ./gecko_sdk_4.3.0/platform/emlib/src/em_cmu.o
 .text.CMU_HFRCODPLLBandSet
                0x00000000      0x118 ./gecko_sdk_4.3.0/platform/emlib/src/em_cmu.o
 .text.CMU_DPLLLock
                0x00000000      0x280 ./gecko_sdk_4.3.0/platform/emlib/src/em_cmu.o
 .text.CMU_PCNTClockExternalSet
                0x00000000       0x14 ./gecko_sdk_4.3.0/platform/emlib/src/em_cmu.o
 .text.CMU_HFRCOEM23BandGet
                0x00000000        0x4 ./gecko_sdk_4.3.0/platform/emlib/src/em_cmu.o
 .text.CMU_HFRCOEM23BandSet
                0x00000000       0xfc ./gecko_sdk_4.3.0/platform/emlib/src/em_cmu.o
 .data.lfxo_precision
                0x00000000        0x2 ./gecko_sdk_4.3.0/platform/emlib/src/em_cmu.o
 .rodata.CSWTCH.96
                0x00000000        0x7 ./gecko_sdk_4.3.0/platform/emlib/src/em_cmu.o
 .rodata.CSWTCH.97
                0x00000000        0x6 ./gecko_sdk_4.3.0/platform/emlib/src/em_cmu.o
 .rodata.CSWTCH.98
                0x00000000        0x3 ./gecko_sdk_4.3.0/platform/emlib/src/em_cmu.o
 .rodata.hfrcoCalTable
                0x00000000      0x190 ./gecko_sdk_4.3.0/platform/emlib/src/em_cmu.o
 .text          0x00000000        0x0 ./gecko_sdk_4.3.0/platform/emlib/src/em_core.o
 .data          0x00000000        0x0 ./gecko_sdk_4.3.0/platform/emlib/src/em_core.o
 .bss           0x00000000        0x0 ./gecko_sdk_4.3.0/platform/emlib/src/em_core.o
 .text.__NVIC_GetPriority
                0x00000000       0x24 ./gecko_sdk_4.3.0/platform/emlib/src/em_core.o
 .text.CORE_CriticalDisableIrq
                0x00000000        0x4 ./gecko_sdk_4.3.0/platform/emlib/src/em_core.o
 .text.CORE_CriticalEnableIrq
                0x00000000        0x4 ./gecko_sdk_4.3.0/platform/emlib/src/em_core.o
 .text.CORE_YieldCritical
                0x00000000       0x12 ./gecko_sdk_4.3.0/platform/emlib/src/em_core.o
 .text.CORE_AtomicDisableIrq
                0x00000000        0x8 ./gecko_sdk_4.3.0/platform/emlib/src/em_core.o
 .text.CORE_AtomicEnableIrq
                0x00000000        0x8 ./gecko_sdk_4.3.0/platform/emlib/src/em_core.o
 .text.CORE_YieldAtomic
                0x00000000       0x18 ./gecko_sdk_4.3.0/platform/emlib/src/em_core.o
 .text.CORE_EnterNvicMask
                0x00000000       0x2c ./gecko_sdk_4.3.0/platform/emlib/src/em_core.o
 .text.CORE_NvicDisableMask
                0x00000000       0x20 ./gecko_sdk_4.3.0/platform/emlib/src/em_core.o
 .text.CORE_NvicEnableMask
                0x00000000       0x20 ./gecko_sdk_4.3.0/platform/emlib/src/em_core.o
 .text.CORE_YieldNvicMask
                0x00000000       0x48 ./gecko_sdk_4.3.0/platform/emlib/src/em_core.o
 .text.CORE_NvicMaskSetIRQ
                0x00000000       0x34 ./gecko_sdk_4.3.0/platform/emlib/src/em_core.o
 .text.CORE_NvicMaskClearIRQ
                0x00000000       0x34 ./gecko_sdk_4.3.0/platform/emlib/src/em_core.o
 .text.CORE_InIrqContext
                0x00000000       0x14 ./gecko_sdk_4.3.0/platform/emlib/src/em_core.o
 .text.CORE_IrqIsDisabled
                0x00000000       0x1a ./gecko_sdk_4.3.0/platform/emlib/src/em_core.o
 .text.CORE_GetNvicEnabledMask
                0x00000000       0x20 ./gecko_sdk_4.3.0/platform/emlib/src/em_core.o
 .text.CORE_GetNvicMaskDisableState
                0x00000000       0x38 ./gecko_sdk_4.3.0/platform/emlib/src/em_core.o
 .text.CORE_IrqIsBlocked
                0x00000000       0x6c ./gecko_sdk_4.3.0/platform/emlib/src/em_core.o
 .text.CORE_GetNvicRamTableHandler
                0x00000000       0x2c ./gecko_sdk_4.3.0/platform/emlib/src/em_core.o
 .text.CORE_SetNvicRamTableHandler
                0x00000000       0x30 ./gecko_sdk_4.3.0/platform/emlib/src/em_core.o
 .text.CORE_InitNvicVectorTable
                0x00000000       0xa0 ./gecko_sdk_4.3.0/platform/emlib/src/em_core.o
 .text          0x00000000        0x0 ./gecko_sdk_4.3.0/platform/emlib/src/em_emu.o
 .data          0x00000000        0x0 ./gecko_sdk_4.3.0/platform/emlib/src/em_emu.o
 .bss           0x00000000        0x0 ./gecko_sdk_4.3.0/platform/emlib/src/em_emu.o
 .text.EMU_EM23Init
                0x00000000       0x18 ./gecko_sdk_4.3.0/platform/emlib/src/em_emu.o
 .text.EMU_EM23PresleepHook
                0x00000000        0x2 ./gecko_sdk_4.3.0/platform/emlib/src/em_emu.o
 .text.EMU_EFPEM23PresleepHook
                0x00000000        0x2 ./gecko_sdk_4.3.0/platform/emlib/src/em_emu.o
 .text.EMU_EM23PostsleepHook
                0x00000000        0x2 ./gecko_sdk_4.3.0/platform/emlib/src/em_emu.o
 .text.EMU_EFPEM23PostsleepHook
                0x00000000        0x2 ./gecko_sdk_4.3.0/platform/emlib/src/em_emu.o
 .text.EMU_EnterEM2
                0x00000000       0x30 ./gecko_sdk_4.3.0/platform/emlib/src/em_emu.o
 .text.EMU_EnterEM3
                0x00000000       0x28 ./gecko_sdk_4.3.0/platform/emlib/src/em_emu.o
 .text.EMU_Save
                0x00000000        0x2 ./gecko_sdk_4.3.0/platform/emlib/src/em_emu.o
 .text.EMU_Restore
                0x00000000        0x2 ./gecko_sdk_4.3.0/platform/emlib/src/em_emu.o
 .text.EMU_EM4PresleepHook
                0x00000000        0x2 ./gecko_sdk_4.3.0/platform/emlib/src/em_emu.o
 .text.EMU_EFPEM4PresleepHook
                0x00000000        0x2 ./gecko_sdk_4.3.0/platform/emlib/src/em_emu.o
 .text.EMU_MemPwrDown
                0x00000000        0x2 ./gecko_sdk_4.3.0/platform/emlib/src/em_emu.o
 .text.EMU_RamPowerDown
                0x00000000       0x64 ./gecko_sdk_4.3.0/platform/emlib/src/em_emu.o
 .text.EMU_RamPowerUp
                0x00000000       0x18 ./gecko_sdk_4.3.0/platform/emlib/src/em_emu.o
 .text.EMU_UpdateOscConfig
                0x00000000        0x2 ./gecko_sdk_4.3.0/platform/emlib/src/em_emu.o
 .text.EMU_EM01Init
                0x00000000       0x14 ./gecko_sdk_4.3.0/platform/emlib/src/em_emu.o
 .text.EMU_EnterEM4
                0x00000000       0x84 ./gecko_sdk_4.3.0/platform/emlib/src/em_emu.o
 .text.EMU_EnterEM4Wait
                0x00000000       0x14 ./gecko_sdk_4.3.0/platform/emlib/src/em_emu.o
 .text.EMU_EnterEM4H
                0x00000000        0x4 ./gecko_sdk_4.3.0/platform/emlib/src/em_emu.o
 .text.EMU_EnterEM4S
                0x00000000        0x4 ./gecko_sdk_4.3.0/platform/emlib/src/em_emu.o
 .text.EMU_DCDCPowerOff
                0x00000000        0xc ./gecko_sdk_4.3.0/platform/emlib/src/em_emu.o
 .text.EMU_EM01PeakCurrentSet
                0x00000000       0x60 ./gecko_sdk_4.3.0/platform/emlib/src/em_emu.o
 .text.EMU_DCDCSetPFMXTimeoutMaxCtrl
                0x00000000       0x58 ./gecko_sdk_4.3.0/platform/emlib/src/em_emu.o
 .text.EMU_TemperatureGet
                0x00000000       0x24 ./gecko_sdk_4.3.0/platform/emlib/src/em_emu.o
 .text.EMU_EFPDirectModeEnable
                0x00000000       0x18 ./gecko_sdk_4.3.0/platform/emlib/src/em_emu.o
 .text.EMU_EFPDriveDecoupleSet
                0x00000000       0x18 ./gecko_sdk_4.3.0/platform/emlib/src/em_emu.o
 .text.EMU_EFPDriveDvddSet
                0x00000000       0x18 ./gecko_sdk_4.3.0/platform/emlib/src/em_emu.o
 .text          0x00000000        0x0 ./gecko_sdk_4.3.0/platform/emlib/src/em_gpio.o
 .data          0x00000000        0x0 ./gecko_sdk_4.3.0/platform/emlib/src/em_gpio.o
 .bss           0x00000000        0x0 ./gecko_sdk_4.3.0/platform/emlib/src/em_gpio.o
 .text.GPIO_PinModeGet
                0x00000000       0x64 ./gecko_sdk_4.3.0/platform/emlib/src/em_gpio.o
 .text.GPIO_EM4EnablePinWakeup
                0x00000000       0x7c ./gecko_sdk_4.3.0/platform/emlib/src/em_gpio.o
 .text.GPIO_EM4WUExtIntConfig
                0x00000000       0x74 ./gecko_sdk_4.3.0/platform/emlib/src/em_gpio.o
 .text          0x00000000        0x0 ./gecko_sdk_4.3.0/platform/emlib/src/em_i2c.o
 .data          0x00000000        0x0 ./gecko_sdk_4.3.0/platform/emlib/src/em_i2c.o
 .bss           0x00000000        0x0 ./gecko_sdk_4.3.0/platform/emlib/src/em_i2c.o
 .text.I2C_BusFreqGet
                0x00000000       0x4c ./gecko_sdk_4.3.0/platform/emlib/src/em_i2c.o
 .text.I2C_Reset
                0x00000000       0x30 ./gecko_sdk_4.3.0/platform/emlib/src/em_i2c.o
 .text          0x00000000        0x0 ./gecko_sdk_4.3.0/platform/emlib/src/em_iadc.o
 .data          0x00000000        0x0 ./gecko_sdk_4.3.0/platform/emlib/src/em_iadc.o
 .bss           0x00000000        0x0 ./gecko_sdk_4.3.0/platform/emlib/src/em_iadc.o
 .text.IADC_disable
                0x00000000       0x1c ./gecko_sdk_4.3.0/platform/emlib/src/em_iadc.o
 .text.IADC_ConvertRawDataToResult
                0x00000000       0x32 ./gecko_sdk_4.3.0/platform/emlib/src/em_iadc.o
 .rodata.IADC_initScan.str1.1
                0x00000000       0x4c ./gecko_sdk_4.3.0/platform/emlib/src/em_iadc.o
 .text.IADC_initScan
                0x00000000       0xf0 ./gecko_sdk_4.3.0/platform/emlib/src/em_iadc.o
 .text.IADC_updateSingleInput
                0x00000000       0x58 ./gecko_sdk_4.3.0/platform/emlib/src/em_iadc.o
 .text.IADC_initSingle
                0x00000000       0xb0 ./gecko_sdk_4.3.0/platform/emlib/src/em_iadc.o
 .text.IADC_setScanMask
                0x00000000       0x54 ./gecko_sdk_4.3.0/platform/emlib/src/em_iadc.o
 .text.IADC_updateScanEntry
                0x00000000       0x7c ./gecko_sdk_4.3.0/platform/emlib/src/em_iadc.o
 .text.IADC_reset
                0x00000000       0xd4 ./gecko_sdk_4.3.0/platform/emlib/src/em_iadc.o
 .text.IADC_calcTimebase
                0x00000000       0x64 ./gecko_sdk_4.3.0/platform/emlib/src/em_iadc.o
 .text.IADC_calcSrcClkPrescale
                0x00000000       0x5c ./gecko_sdk_4.3.0/platform/emlib/src/em_iadc.o
 .text.IADC_calcAdcClkPrescale
                0x00000000       0x74 ./gecko_sdk_4.3.0/platform/emlib/src/em_iadc.o
 .text.IADC_init
                0x00000000      0x354 ./gecko_sdk_4.3.0/platform/emlib/src/em_iadc.o
 .text.IADC_pullSingleFifoResult
                0x00000000       0x10 ./gecko_sdk_4.3.0/platform/emlib/src/em_iadc.o
 .text.IADC_readSingleResult
                0x00000000       0x10 ./gecko_sdk_4.3.0/platform/emlib/src/em_iadc.o
 .text.IADC_pullScanFifoResult
                0x00000000       0x14 ./gecko_sdk_4.3.0/platform/emlib/src/em_iadc.o
 .text.IADC_readScanResult
                0x00000000       0x14 ./gecko_sdk_4.3.0/platform/emlib/src/em_iadc.o
 .text.IADC_getReferenceVoltage
                0x00000000       0x44 ./gecko_sdk_4.3.0/platform/emlib/src/em_iadc.o
 .debug_info    0x00000000     0x2a28 ./gecko_sdk_4.3.0/platform/emlib/src/em_iadc.o
 .debug_abbrev  0x00000000      0x3f9 ./gecko_sdk_4.3.0/platform/emlib/src/em_iadc.o
 .debug_loc     0x00000000     0x1456 ./gecko_sdk_4.3.0/platform/emlib/src/em_iadc.o
 .debug_aranges
                0x00000000       0xa0 ./gecko_sdk_4.3.0/platform/emlib/src/em_iadc.o
 .debug_ranges  0x00000000      0x178 ./gecko_sdk_4.3.0/platform/emlib/src/em_iadc.o
 .debug_line    0x00000000     0x1092 ./gecko_sdk_4.3.0/platform/emlib/src/em_iadc.o
 .debug_str     0x00000000     0x2514 ./gecko_sdk_4.3.0/platform/emlib/src/em_iadc.o
 .comment       0x00000000       0x4a ./gecko_sdk_4.3.0/platform/emlib/src/em_iadc.o
 .debug_frame   0x00000000      0x230 ./gecko_sdk_4.3.0/platform/emlib/src/em_iadc.o
 .ARM.attributes
                0x00000000       0x3a ./gecko_sdk_4.3.0/platform/emlib/src/em_iadc.o
 .text          0x00000000        0x0 ./gecko_sdk_4.3.0/platform/emlib/src/em_msc.o
 .data          0x00000000        0x0 ./gecko_sdk_4.3.0/platform/emlib/src/em_msc.o
 .bss           0x00000000        0x0 ./gecko_sdk_4.3.0/platform/emlib/src/em_msc.o
 .ram           0x00000000      0x1e8 ./gecko_sdk_4.3.0/platform/emlib/src/em_msc.o
 .rodata.str1.1
                0x00000000       0x4b ./gecko_sdk_4.3.0/platform/emlib/src/em_msc.o
 .text.MSC_Init
                0x00000000       0x20 ./gecko_sdk_4.3.0/platform/emlib/src/em_msc.o
 .text.MSC_Deinit
                0x00000000       0x24 ./gecko_sdk_4.3.0/platform/emlib/src/em_msc.o
 .text.MSC_ExecConfigSet
                0x00000000       0x18 ./gecko_sdk_4.3.0/platform/emlib/src/em_msc.o
 .text.MSC_WriteWordDma
                0x00000000       0xf0 ./gecko_sdk_4.3.0/platform/emlib/src/em_msc.o
 .text.MSC_EccConfigSet
                0x00000000       0x7c ./gecko_sdk_4.3.0/platform/emlib/src/em_msc.o
 .text.MSC_DmemPortMapSet
                0x00000000       0x80 ./gecko_sdk_4.3.0/platform/emlib/src/em_msc.o
 .text.MSC_PortSetPriority
                0x00000000       0x38 ./gecko_sdk_4.3.0/platform/emlib/src/em_msc.o
 .text.MSC_PortGetCurrentPriority
                0x00000000       0x10 ./gecko_sdk_4.3.0/platform/emlib/src/em_msc.o
 .debug_info    0x00000000     0x3522 ./gecko_sdk_4.3.0/platform/emlib/src/em_msc.o
 .debug_abbrev  0x00000000      0x350 ./gecko_sdk_4.3.0/platform/emlib/src/em_msc.o
 .debug_loc     0x00000000      0xa37 ./gecko_sdk_4.3.0/platform/emlib/src/em_msc.o
 .debug_aranges
                0x00000000       0x80 ./gecko_sdk_4.3.0/platform/emlib/src/em_msc.o
 .debug_ranges  0x00000000      0x110 ./gecko_sdk_4.3.0/platform/emlib/src/em_msc.o
 .debug_line    0x00000000      0xa1b ./gecko_sdk_4.3.0/platform/emlib/src/em_msc.o
 .debug_str     0x00000000     0x1b67 ./gecko_sdk_4.3.0/platform/emlib/src/em_msc.o
 .comment       0x00000000       0x4a ./gecko_sdk_4.3.0/platform/emlib/src/em_msc.o
 .debug_frame   0x00000000      0x174 ./gecko_sdk_4.3.0/platform/emlib/src/em_msc.o
 .ARM.attributes
                0x00000000       0x3a ./gecko_sdk_4.3.0/platform/emlib/src/em_msc.o
 .text          0x00000000        0x0 ./gecko_sdk_4.3.0/platform/emlib/src/em_prs.o
 .data          0x00000000        0x0 ./gecko_sdk_4.3.0/platform/emlib/src/em_prs.o
 .bss           0x00000000        0x0 ./gecko_sdk_4.3.0/platform/emlib/src/em_prs.o
 .text.PRS_SourceSignalSet
                0x00000000       0x34 ./gecko_sdk_4.3.0/platform/emlib/src/em_prs.o
 .text.PRS_GetFreeChannel
                0x00000000       0x34 ./gecko_sdk_4.3.0/platform/emlib/src/em_prs.o
 .text.PRS_Reset
                0x00000000       0x28 ./gecko_sdk_4.3.0/platform/emlib/src/em_prs.o
 .text.PRS_SourceAsyncSignalSet
                0x00000000        0xa ./gecko_sdk_4.3.0/platform/emlib/src/em_prs.o
 .text.PRS_PinOutput
                0x00000000       0x48 ./gecko_sdk_4.3.0/platform/emlib/src/em_prs.o
 .text.PRS_Combine
                0x00000000       0x48 ./gecko_sdk_4.3.0/platform/emlib/src/em_prs.o
 .text          0x00000000        0x0 ./gecko_sdk_4.3.0/platform/emlib/src/em_system.o
 .data          0x00000000        0x0 ./gecko_sdk_4.3.0/platform/emlib/src/em_system.o
 .bss           0x00000000        0x0 ./gecko_sdk_4.3.0/platform/emlib/src/em_system.o
 .text.SYSTEM_ChipRevisionGet
                0x00000000       0x24 ./gecko_sdk_4.3.0/platform/emlib/src/em_system.o
 .text.SYSTEM_GetCalibrationValue
                0x00000000       0x30 ./gecko_sdk_4.3.0/platform/emlib/src/em_system.o
 .text.SYSTEM_GetSecurityCapability
                0x00000000       0x28 ./gecko_sdk_4.3.0/platform/emlib/src/em_system.o
 .text.SYSTEM_GetUnique
                0x00000000        0xc ./gecko_sdk_4.3.0/platform/emlib/src/em_system.o
 .text.SYSTEM_GetProdRev
                0x00000000       0x10 ./gecko_sdk_4.3.0/platform/emlib/src/em_system.o
 .text.SYSTEM_GetSRAMBaseAddress
                0x00000000        0x6 ./gecko_sdk_4.3.0/platform/emlib/src/em_system.o
 .text.SYSTEM_GetSRAMSize
                0x00000000       0x10 ./gecko_sdk_4.3.0/platform/emlib/src/em_system.o
 .text.SYSTEM_GetFlashSize
                0x00000000        0xc ./gecko_sdk_4.3.0/platform/emlib/src/em_system.o
 .text.SYSTEM_GetFlashPageSize
                0x00000000       0x14 ./gecko_sdk_4.3.0/platform/emlib/src/em_system.o
 .text.SYSTEM_GetPartNumber
                0x00000000        0xc ./gecko_sdk_4.3.0/platform/emlib/src/em_system.o
 .text.SYSTEM_GetCalibrationTemperature
                0x00000000        0xc ./gecko_sdk_4.3.0/platform/emlib/src/em_system.o
 .text.SYSTEM_GetFamily
                0x00000000       0x18 ./gecko_sdk_4.3.0/platform/emlib/src/em_system.o
 .rodata.CSWTCH.11
                0x00000000        0x3 ./gecko_sdk_4.3.0/platform/emlib/src/em_system.o
 .debug_info    0x00000000     0x1ebd ./gecko_sdk_4.3.0/platform/emlib/src/em_system.o
 .debug_abbrev  0x00000000      0x297 ./gecko_sdk_4.3.0/platform/emlib/src/em_system.o
 .debug_loc     0x00000000      0x196 ./gecko_sdk_4.3.0/platform/emlib/src/em_system.o
 .debug_aranges
                0x00000000       0x78 ./gecko_sdk_4.3.0/platform/emlib/src/em_system.o
 .debug_ranges  0x00000000       0x80 ./gecko_sdk_4.3.0/platform/emlib/src/em_system.o
 .debug_line    0x00000000      0x492 ./gecko_sdk_4.3.0/platform/emlib/src/em_system.o
 .debug_str     0x00000000     0x15e4 ./gecko_sdk_4.3.0/platform/emlib/src/em_system.o
 .comment       0x00000000       0x4a ./gecko_sdk_4.3.0/platform/emlib/src/em_system.o
 .debug_frame   0x00000000       0xd8 ./gecko_sdk_4.3.0/platform/emlib/src/em_system.o
 .ARM.attributes
                0x00000000       0x3a ./gecko_sdk_4.3.0/platform/emlib/src/em_system.o
 .text          0x00000000        0x0 ./gecko_sdk_4.3.0/platform/emlib/src/em_timer.o
 .data          0x00000000        0x0 ./gecko_sdk_4.3.0/platform/emlib/src/em_timer.o
 .bss           0x00000000        0x0 ./gecko_sdk_4.3.0/platform/emlib/src/em_timer.o
 .text.TIMER_Valid
                0x00000000       0x34 ./gecko_sdk_4.3.0/platform/emlib/src/em_timer.o
 .rodata.timerPrsConfig.str1.1
                0x00000000       0x4d ./gecko_sdk_4.3.0/platform/emlib/src/em_timer.o
 .text.timerPrsConfig
                0x00000000       0x7c ./gecko_sdk_4.3.0/platform/emlib/src/em_timer.o
 .text.TIMER_SyncWait
                0x00000000        0xe ./gecko_sdk_4.3.0/platform/emlib/src/em_timer.o
 .text.TIMER_Init
                0x00000000       0xc8 ./gecko_sdk_4.3.0/platform/emlib/src/em_timer.o
 .text.TIMER_InitCC
                0x00000000       0xc0 ./gecko_sdk_4.3.0/platform/emlib/src/em_timer.o
 .text.TIMER_Reset
                0x00000000       0xa0 ./gecko_sdk_4.3.0/platform/emlib/src/em_timer.o
 .rodata.TIMER_InitDTI.str1.1
                0x00000000       0x4d ./gecko_sdk_4.3.0/platform/emlib/src/em_timer.o
 .text.TIMER_InitDTI
                0x00000000      0x180 ./gecko_sdk_4.3.0/platform/emlib/src/em_timer.o
 .debug_info    0x00000000     0x2f03 ./gecko_sdk_4.3.0/platform/emlib/src/em_timer.o
 .debug_abbrev  0x00000000      0x347 ./gecko_sdk_4.3.0/platform/emlib/src/em_timer.o
 .debug_loc     0x00000000      0x610 ./gecko_sdk_4.3.0/platform/emlib/src/em_timer.o
 .debug_aranges
                0x00000000       0x50 ./gecko_sdk_4.3.0/platform/emlib/src/em_timer.o
 .debug_ranges  0x00000000       0x78 ./gecko_sdk_4.3.0/platform/emlib/src/em_timer.o
 .debug_line    0x00000000      0x898 ./gecko_sdk_4.3.0/platform/emlib/src/em_timer.o
 .debug_str     0x00000000     0x32a9 ./gecko_sdk_4.3.0/platform/emlib/src/em_timer.o
 .comment       0x00000000       0x4a ./gecko_sdk_4.3.0/platform/emlib/src/em_timer.o
 .debug_frame   0x00000000       0xcc ./gecko_sdk_4.3.0/platform/emlib/src/em_timer.o
 .ARM.attributes
                0x00000000       0x3a ./gecko_sdk_4.3.0/platform/emlib/src/em_timer.o
 .text          0x00000000        0x0 ./gecko_sdk_4.3.0/platform/emlib/src/em_usart.o
 .data          0x00000000        0x0 ./gecko_sdk_4.3.0/platform/emlib/src/em_usart.o
 .bss           0x00000000        0x0 ./gecko_sdk_4.3.0/platform/emlib/src/em_usart.o
 .text.USART_BaudrateAsyncSet
                0x00000000       0xe0 ./gecko_sdk_4.3.0/platform/emlib/src/em_usart.o
 .text.USART_BaudrateCalc
                0x00000000       0x7c ./gecko_sdk_4.3.0/platform/emlib/src/em_usart.o
 .text.USART_BaudrateGet
                0x00000000       0x22 ./gecko_sdk_4.3.0/platform/emlib/src/em_usart.o
 .text.USART_Enable
                0x00000000       0x3c ./gecko_sdk_4.3.0/platform/emlib/src/em_usart.o
 .text.USART_InitPrsTrigger
                0x00000000       0x38 ./gecko_sdk_4.3.0/platform/emlib/src/em_usart.o
 .text.USART_InitAsync
                0x00000000       0xd4 ./gecko_sdk_4.3.0/platform/emlib/src/em_usart.o
 .text.USARTn_InitIrDA
                0x00000000       0x54 ./gecko_sdk_4.3.0/platform/emlib/src/em_usart.o
 .text.USART_InitI2s
                0x00000000       0x70 ./gecko_sdk_4.3.0/platform/emlib/src/em_usart.o
 .text.USART_RxDouble
                0x00000000        0xc ./gecko_sdk_4.3.0/platform/emlib/src/em_usart.o
 .text.USART_RxDoubleExt
                0x00000000        0xa ./gecko_sdk_4.3.0/platform/emlib/src/em_usart.o
 .text.USART_RxExt
                0x00000000        0xc ./gecko_sdk_4.3.0/platform/emlib/src/em_usart.o
 .text.USART_TxDouble
                0x00000000        0xa ./gecko_sdk_4.3.0/platform/emlib/src/em_usart.o
 .text.USART_TxDoubleExt
                0x00000000        0xa ./gecko_sdk_4.3.0/platform/emlib/src/em_usart.o
 .text.USART_TxExt
                0x00000000        0xa ./gecko_sdk_4.3.0/platform/emlib/src/em_usart.o
 .text          0x00000000        0x0 ./gecko_sdk_4.3.0/platform/middleware/glib/dmd/display/dmd_memlcd.o
 .data          0x00000000        0x0 ./gecko_sdk_4.3.0/platform/middleware/glib/dmd/display/dmd_memlcd.o
 .bss           0x00000000        0x0 ./gecko_sdk_4.3.0/platform/middleware/glib/dmd/display/dmd_memlcd.o
 .text.DMD_writeData
                0x00000000      0x11c ./gecko_sdk_4.3.0/platform/middleware/glib/dmd/display/dmd_memlcd.o
 .text.DMD_readData
                0x00000000        0x4 ./gecko_sdk_4.3.0/platform/middleware/glib/dmd/display/dmd_memlcd.o
 .text.DMD_sleep
                0x00000000       0x14 ./gecko_sdk_4.3.0/platform/middleware/glib/dmd/display/dmd_memlcd.o
 .text.DMD_wakeUp
                0x00000000       0x14 ./gecko_sdk_4.3.0/platform/middleware/glib/dmd/display/dmd_memlcd.o
 .text.DMD_flipDisplay
                0x00000000        0x4 ./gecko_sdk_4.3.0/platform/middleware/glib/dmd/display/dmd_memlcd.o
 .text.DMD_freeFramebuffer
                0x00000000        0x4 ./gecko_sdk_4.3.0/platform/middleware/glib/dmd/display/dmd_memlcd.o
 .text.DMD_selectFramebuffer
                0x00000000        0x4 ./gecko_sdk_4.3.0/platform/middleware/glib/dmd/display/dmd_memlcd.o
 .text.DMD_getFrameBuffer
                0x00000000        0xc ./gecko_sdk_4.3.0/platform/middleware/glib/dmd/display/dmd_memlcd.o
 .text          0x00000000        0x0 ./gecko_sdk_4.3.0/platform/middleware/glib/fonts/glib_font_narrow_6x8.o
 .data          0x00000000        0x0 ./gecko_sdk_4.3.0/platform/middleware/glib/fonts/glib_font_narrow_6x8.o
 .bss           0x00000000        0x0 ./gecko_sdk_4.3.0/platform/middleware/glib/fonts/glib_font_narrow_6x8.o
 .text          0x00000000        0x0 ./gecko_sdk_4.3.0/platform/middleware/glib/fonts/glib_font_normal_8x8.o
 .data          0x00000000        0x0 ./gecko_sdk_4.3.0/platform/middleware/glib/fonts/glib_font_normal_8x8.o
 .bss           0x00000000        0x0 ./gecko_sdk_4.3.0/platform/middleware/glib/fonts/glib_font_normal_8x8.o
 .text          0x00000000        0x0 ./gecko_sdk_4.3.0/platform/middleware/glib/fonts/glib_font_number_16x20.o
 .data          0x00000000        0x0 ./gecko_sdk_4.3.0/platform/middleware/glib/fonts/glib_font_number_16x20.o
 .bss           0x00000000        0x0 ./gecko_sdk_4.3.0/platform/middleware/glib/fonts/glib_font_number_16x20.o
 .rodata.GLIB_FontNumber16x20
                0x00000000       0x10 ./gecko_sdk_4.3.0/platform/middleware/glib/fonts/glib_font_number_16x20.o
 .rodata.GLIB_FontNumber16x20PixMap
                0x00000000      0x1e0 ./gecko_sdk_4.3.0/platform/middleware/glib/fonts/glib_font_number_16x20.o
 .debug_info    0x00000000      0x1c4 ./gecko_sdk_4.3.0/platform/middleware/glib/fonts/glib_font_number_16x20.o
 .debug_abbrev  0x00000000       0xe8 ./gecko_sdk_4.3.0/platform/middleware/glib/fonts/glib_font_number_16x20.o
 .debug_aranges
                0x00000000       0x18 ./gecko_sdk_4.3.0/platform/middleware/glib/fonts/glib_font_number_16x20.o
 .debug_line    0x00000000      0x1d1 ./gecko_sdk_4.3.0/platform/middleware/glib/fonts/glib_font_number_16x20.o
 .debug_str     0x00000000      0x34e ./gecko_sdk_4.3.0/platform/middleware/glib/fonts/glib_font_number_16x20.o
 .comment       0x00000000       0x4a ./gecko_sdk_4.3.0/platform/middleware/glib/fonts/glib_font_number_16x20.o
 .ARM.attributes
                0x00000000       0x3a ./gecko_sdk_4.3.0/platform/middleware/glib/fonts/glib_font_number_16x20.o
 .text          0x00000000        0x0 ./gecko_sdk_4.3.0/platform/middleware/glib/glib/bmp.o
 .data          0x00000000        0x0 ./gecko_sdk_4.3.0/platform/middleware/glib/glib/bmp.o
 .bss           0x00000000        0x0 ./gecko_sdk_4.3.0/platform/middleware/glib/glib/bmp.o
 .text.BMP_readRawData8bit
                0x00000000       0x74 ./gecko_sdk_4.3.0/platform/middleware/glib/glib/bmp.o
 .text.BMP_readPaddingBytes
                0x00000000       0x2c ./gecko_sdk_4.3.0/platform/middleware/glib/glib/bmp.o
 .text.BMP_readRleData.constprop.0
                0x00000000       0x90 ./gecko_sdk_4.3.0/platform/middleware/glib/glib/bmp.o
 .text.BMP_init
                0x00000000       0x38 ./gecko_sdk_4.3.0/platform/middleware/glib/glib/bmp.o
 .text.BMP_reset
                0x00000000      0x100 ./gecko_sdk_4.3.0/platform/middleware/glib/glib/bmp.o
 .text.BMP_readRawData
                0x00000000      0x248 ./gecko_sdk_4.3.0/platform/middleware/glib/glib/bmp.o
 .text.BMP_readRgbData
                0x00000000      0x30c ./gecko_sdk_4.3.0/platform/middleware/glib/glib/bmp.o
 .text.BMP_getWidth
                0x00000000       0x28 ./gecko_sdk_4.3.0/platform/middleware/glib/glib/bmp.o
 .text.BMP_getHeight
                0x00000000       0x28 ./gecko_sdk_4.3.0/platform/middleware/glib/glib/bmp.o
 .text.BMP_getBitsPerPixel
                0x00000000       0x28 ./gecko_sdk_4.3.0/platform/middleware/glib/glib/bmp.o
 .text.BMP_getCompressionType
                0x00000000       0x28 ./gecko_sdk_4.3.0/platform/middleware/glib/glib/bmp.o
 .text.BMP_getImageDataSize
                0x00000000       0x28 ./gecko_sdk_4.3.0/platform/middleware/glib/glib/bmp.o
 .text.BMP_getDataOffset
                0x00000000       0x28 ./gecko_sdk_4.3.0/platform/middleware/glib/glib/bmp.o
 .text.BMP_getFileSize
                0x00000000       0x28 ./gecko_sdk_4.3.0/platform/middleware/glib/glib/bmp.o
 .bss.bmpHeader
                0x00000000       0x36 ./gecko_sdk_4.3.0/platform/middleware/glib/glib/bmp.o
 .bss.bmpPalette
                0x00000000        0x8 ./gecko_sdk_4.3.0/platform/middleware/glib/glib/bmp.o
 .bss.bytesInImage
                0x00000000        0x4 ./gecko_sdk_4.3.0/platform/middleware/glib/glib/bmp.o
 .bss.dataIdx   0x00000000        0x4 ./gecko_sdk_4.3.0/platform/middleware/glib/glib/bmp.o
 .bss.fileReset
                0x00000000        0x4 ./gecko_sdk_4.3.0/platform/middleware/glib/glib/bmp.o
 .bss.fpReadData
                0x00000000        0x4 ./gecko_sdk_4.3.0/platform/middleware/glib/glib/bmp.o
 .bss.localCache
                0x00000000       0x80 ./gecko_sdk_4.3.0/platform/middleware/glib/glib/bmp.o
 .bss.moduleInit
                0x00000000        0x4 ./gecko_sdk_4.3.0/platform/middleware/glib/glib/bmp.o
 .bss.paletteRead
                0x00000000        0x4 ./gecko_sdk_4.3.0/platform/middleware/glib/glib/bmp.o
 .bss.rleInfo   0x00000000        0xc ./gecko_sdk_4.3.0/platform/middleware/glib/glib/bmp.o
 .debug_info    0x00000000      0xe15 ./gecko_sdk_4.3.0/platform/middleware/glib/glib/bmp.o
 .debug_abbrev  0x00000000      0x353 ./gecko_sdk_4.3.0/platform/middleware/glib/glib/bmp.o
 .debug_loc     0x00000000     0x112e ./gecko_sdk_4.3.0/platform/middleware/glib/glib/bmp.o
 .debug_aranges
                0x00000000       0x88 ./gecko_sdk_4.3.0/platform/middleware/glib/glib/bmp.o
 .debug_ranges  0x00000000       0xf8 ./gecko_sdk_4.3.0/platform/middleware/glib/glib/bmp.o
 .debug_line    0x00000000      0xdfd ./gecko_sdk_4.3.0/platform/middleware/glib/glib/bmp.o
 .debug_str     0x00000000      0x5e8 ./gecko_sdk_4.3.0/platform/middleware/glib/glib/bmp.o
 .comment       0x00000000       0x4a ./gecko_sdk_4.3.0/platform/middleware/glib/glib/bmp.o
 .debug_frame   0x00000000      0x170 ./gecko_sdk_4.3.0/platform/middleware/glib/glib/bmp.o
 .ARM.attributes
                0x00000000       0x3a ./gecko_sdk_4.3.0/platform/middleware/glib/glib/bmp.o
 .text          0x00000000        0x0 ./gecko_sdk_4.3.0/platform/middleware/glib/glib/glib.o
 .data          0x00000000        0x0 ./gecko_sdk_4.3.0/platform/middleware/glib/glib/glib.o
 .bss           0x00000000        0x0 ./gecko_sdk_4.3.0/platform/middleware/glib/glib/glib.o
 .text.GLIB_displayWakeUp
                0x00000000        0x4 ./gecko_sdk_4.3.0/platform/middleware/glib/glib/glib.o
 .text.GLIB_displaySleep
                0x00000000        0x4 ./gecko_sdk_4.3.0/platform/middleware/glib/glib/glib.o
 .text.GLIB_resetClippingRegion
                0x00000000       0x1e ./gecko_sdk_4.3.0/platform/middleware/glib/glib/glib.o
 .text.GLIB_clearRegion
                0x00000000       0x40 ./gecko_sdk_4.3.0/platform/middleware/glib/glib/glib.o
 .text.GLIB_colorTranslate24bpp
                0x00000000        0xe ./gecko_sdk_4.3.0/platform/middleware/glib/glib/glib.o
 .text.GLIB_rgbColor
                0x00000000        0xa ./gecko_sdk_4.3.0/platform/middleware/glib/glib/glib.o
 .text.GLIB_drawPixelRGB
                0x00000000       0x42 ./gecko_sdk_4.3.0/platform/middleware/glib/glib/glib.o
 .text          0x00000000        0x0 ./gecko_sdk_4.3.0/platform/middleware/glib/glib/glib_bitmap.o
 .data          0x00000000        0x0 ./gecko_sdk_4.3.0/platform/middleware/glib/glib/glib_bitmap.o
 .bss           0x00000000        0x0 ./gecko_sdk_4.3.0/platform/middleware/glib/glib/glib_bitmap.o
 .text.GLIB_drawBitmap
                0x00000000       0x3a ./gecko_sdk_4.3.0/platform/middleware/glib/glib/glib_bitmap.o
 .text.GLIB_invertBitmap
                0x00000000       0x12 ./gecko_sdk_4.3.0/platform/middleware/glib/glib/glib_bitmap.o
 .debug_info    0x00000000      0x4a9 ./gecko_sdk_4.3.0/platform/middleware/glib/glib/glib_bitmap.o
 .debug_abbrev  0x00000000      0x1ad ./gecko_sdk_4.3.0/platform/middleware/glib/glib/glib_bitmap.o
 .debug_loc     0x00000000      0x261 ./gecko_sdk_4.3.0/platform/middleware/glib/glib/glib_bitmap.o
 .debug_aranges
                0x00000000       0x28 ./gecko_sdk_4.3.0/platform/middleware/glib/glib/glib_bitmap.o
 .debug_ranges  0x00000000       0x18 ./gecko_sdk_4.3.0/platform/middleware/glib/glib/glib_bitmap.o
 .debug_line    0x00000000      0x2c4 ./gecko_sdk_4.3.0/platform/middleware/glib/glib/glib_bitmap.o
 .debug_str     0x00000000      0x4cc ./gecko_sdk_4.3.0/platform/middleware/glib/glib/glib_bitmap.o
 .comment       0x00000000       0x4a ./gecko_sdk_4.3.0/platform/middleware/glib/glib/glib_bitmap.o
 .debug_frame   0x00000000       0x4c ./gecko_sdk_4.3.0/platform/middleware/glib/glib/glib_bitmap.o
 .ARM.attributes
                0x00000000       0x3a ./gecko_sdk_4.3.0/platform/middleware/glib/glib/glib_bitmap.o
 .text          0x00000000        0x0 ./gecko_sdk_4.3.0/platform/middleware/glib/glib/glib_circle.o
 .data          0x00000000        0x0 ./gecko_sdk_4.3.0/platform/middleware/glib/glib/glib_circle.o
 .bss           0x00000000        0x0 ./gecko_sdk_4.3.0/platform/middleware/glib/glib/glib_circle.o
 .text.GLIB_drawPartialCirclePoints
                0x00000000       0x7a ./gecko_sdk_4.3.0/platform/middleware/glib/glib/glib_circle.o
 .text.GLIB_drawPartialCircle
                0x00000000       0x7a ./gecko_sdk_4.3.0/platform/middleware/glib/glib/glib_circle.o
 .text.GLIB_drawCircle
                0x00000000        0xe ./gecko_sdk_4.3.0/platform/middleware/glib/glib/glib_circle.o
 .text.GLIB_drawCircleFilled
                0x00000000       0xd8 ./gecko_sdk_4.3.0/platform/middleware/glib/glib/glib_circle.o
 .debug_info    0x00000000      0x7c3 ./gecko_sdk_4.3.0/platform/middleware/glib/glib/glib_circle.o
 .debug_abbrev  0x00000000      0x1e4 ./gecko_sdk_4.3.0/platform/middleware/glib/glib/glib_circle.o
 .debug_loc     0x00000000      0x731 ./gecko_sdk_4.3.0/platform/middleware/glib/glib/glib_circle.o
 .debug_aranges
                0x00000000       0x38 ./gecko_sdk_4.3.0/platform/middleware/glib/glib/glib_circle.o
 .debug_ranges  0x00000000       0x28 ./gecko_sdk_4.3.0/platform/middleware/glib/glib/glib_circle.o
 .debug_line    0x00000000      0x494 ./gecko_sdk_4.3.0/platform/middleware/glib/glib/glib_circle.o
 .debug_str     0x00000000      0x506 ./gecko_sdk_4.3.0/platform/middleware/glib/glib/glib_circle.o
 .comment       0x00000000       0x4a ./gecko_sdk_4.3.0/platform/middleware/glib/glib/glib_circle.o
 .debug_frame   0x00000000       0xc8 ./gecko_sdk_4.3.0/platform/middleware/glib/glib/glib_circle.o
 .ARM.attributes
                0x00000000       0x3a ./gecko_sdk_4.3.0/platform/middleware/glib/glib/glib_circle.o
 .text          0x00000000        0x0 ./gecko_sdk_4.3.0/platform/middleware/glib/glib/glib_line.o
 .data          0x00000000        0x0 ./gecko_sdk_4.3.0/platform/middleware/glib/glib/glib_line.o
 .bss           0x00000000        0x0 ./gecko_sdk_4.3.0/platform/middleware/glib/glib/glib_line.o
 .text.GLIB_getClipCode
                0x00000000       0x2e ./gecko_sdk_4.3.0/platform/middleware/glib/glib/glib_line.o
 .text.GLIB_drawLineH
                0x00000000       0x96 ./gecko_sdk_4.3.0/platform/middleware/glib/glib/glib_line.o
 .text.GLIB_drawLineV
                0x00000000       0x96 ./gecko_sdk_4.3.0/platform/middleware/glib/glib/glib_line.o
 .text.GLIB_drawLine
                0x00000000      0x184 ./gecko_sdk_4.3.0/platform/middleware/glib/glib/glib_line.o
 .debug_info    0x00000000      0xa86 ./gecko_sdk_4.3.0/platform/middleware/glib/glib/glib_line.o
 .debug_abbrev  0x00000000      0x2e5 ./gecko_sdk_4.3.0/platform/middleware/glib/glib/glib_line.o
 .debug_loc     0x00000000      0xe0d ./gecko_sdk_4.3.0/platform/middleware/glib/glib/glib_line.o
 .debug_aranges
                0x00000000       0x38 ./gecko_sdk_4.3.0/platform/middleware/glib/glib/glib_line.o
 .debug_ranges  0x00000000       0x28 ./gecko_sdk_4.3.0/platform/middleware/glib/glib/glib_line.o
 .debug_line    0x00000000      0x622 ./gecko_sdk_4.3.0/platform/middleware/glib/glib/glib_line.o
 .debug_str     0x00000000      0x56a ./gecko_sdk_4.3.0/platform/middleware/glib/glib/glib_line.o
 .comment       0x00000000       0x4a ./gecko_sdk_4.3.0/platform/middleware/glib/glib/glib_line.o
 .debug_frame   0x00000000       0xc8 ./gecko_sdk_4.3.0/platform/middleware/glib/glib/glib_line.o
 .ARM.attributes
                0x00000000       0x3a ./gecko_sdk_4.3.0/platform/middleware/glib/glib/glib_line.o
 .text          0x00000000        0x0 ./gecko_sdk_4.3.0/platform/middleware/glib/glib/glib_polygon.o
 .data          0x00000000        0x0 ./gecko_sdk_4.3.0/platform/middleware/glib/glib/glib_polygon.o
 .bss           0x00000000        0x0 ./gecko_sdk_4.3.0/platform/middleware/glib/glib/glib_polygon.o
 .text.GLIB_drawPolygon
                0x00000000       0x7c ./gecko_sdk_4.3.0/platform/middleware/glib/glib/glib_polygon.o
 .text.GLIB_drawPolygonFilled
                0x00000000       0xfc ./gecko_sdk_4.3.0/platform/middleware/glib/glib/glib_polygon.o
 .debug_info    0x00000000      0x62a ./gecko_sdk_4.3.0/platform/middleware/glib/glib/glib_polygon.o
 .debug_abbrev  0x00000000      0x18b ./gecko_sdk_4.3.0/platform/middleware/glib/glib/glib_polygon.o
 .debug_loc     0x00000000      0x63a ./gecko_sdk_4.3.0/platform/middleware/glib/glib/glib_polygon.o
 .debug_aranges
                0x00000000       0x28 ./gecko_sdk_4.3.0/platform/middleware/glib/glib/glib_polygon.o
 .debug_ranges  0x00000000       0x18 ./gecko_sdk_4.3.0/platform/middleware/glib/glib/glib_polygon.o
 .debug_line    0x00000000      0x554 ./gecko_sdk_4.3.0/platform/middleware/glib/glib/glib_polygon.o
 .debug_str     0x00000000      0x558 ./gecko_sdk_4.3.0/platform/middleware/glib/glib/glib_polygon.o
 .comment       0x00000000       0x4a ./gecko_sdk_4.3.0/platform/middleware/glib/glib/glib_polygon.o
 .debug_frame   0x00000000       0x70 ./gecko_sdk_4.3.0/platform/middleware/glib/glib/glib_polygon.o
 .ARM.attributes
                0x00000000       0x3a ./gecko_sdk_4.3.0/platform/middleware/glib/glib/glib_polygon.o
 .text          0x00000000        0x0 ./gecko_sdk_4.3.0/platform/middleware/glib/glib/glib_rectangle.o
 .data          0x00000000        0x0 ./gecko_sdk_4.3.0/platform/middleware/glib/glib/glib_rectangle.o
 .bss           0x00000000        0x0 ./gecko_sdk_4.3.0/platform/middleware/glib/glib/glib_rectangle.o
 .text.GLIB_normalizeRect
                0x00000000       0x1a ./gecko_sdk_4.3.0/platform/middleware/glib/glib/glib_rectangle.o
 .text.GLIB_drawRect
                0x00000000       0x90 ./gecko_sdk_4.3.0/platform/middleware/glib/glib/glib_rectangle.o
 .text.GLIB_drawRectFilled
                0x00000000       0x96 ./gecko_sdk_4.3.0/platform/middleware/glib/glib/glib_rectangle.o
 .text          0x00000000        0x0 ./gecko_sdk_4.3.0/platform/middleware/glib/glib/glib_string.o
 .data          0x00000000        0x0 ./gecko_sdk_4.3.0/platform/middleware/glib/glib/glib_string.o
 .bss           0x00000000        0x0 ./gecko_sdk_4.3.0/platform/middleware/glib/glib/glib_string.o
 .text          0x00000000        0x0 ./gecko_sdk_4.3.0/platform/peripheral/src/peripheral_sysrtc.o
 .data          0x00000000        0x0 ./gecko_sdk_4.3.0/platform/peripheral/src/peripheral_sysrtc.o
 .bss           0x00000000        0x0 ./gecko_sdk_4.3.0/platform/peripheral/src/peripheral_sysrtc.o
 .text.sl_sysrtc_reset
                0x00000000        0xc ./gecko_sdk_4.3.0/platform/peripheral/src/peripheral_sysrtc.o
 .text.sl_sysrtc_get_group_enabled_interrupts
                0x00000000       0x24 ./gecko_sdk_4.3.0/platform/peripheral/src/peripheral_sysrtc.o
 .text.sl_sysrtc_set_group_interrupts
                0x00000000       0x1c ./gecko_sdk_4.3.0/platform/peripheral/src/peripheral_sysrtc.o
 .text.sl_sysrtc_get_group_capture_channel_value
                0x00000000       0x20 ./gecko_sdk_4.3.0/platform/peripheral/src/peripheral_sysrtc.o
 .text          0x00000000        0x0 ./gecko_sdk_4.3.0/platform/service/device_init/src/sl_device_init_dcdc_s2.o
 .data          0x00000000        0x0 ./gecko_sdk_4.3.0/platform/service/device_init/src/sl_device_init_dcdc_s2.o
 .bss           0x00000000        0x0 ./gecko_sdk_4.3.0/platform/service/device_init/src/sl_device_init_dcdc_s2.o
 .text          0x00000000        0x0 ./gecko_sdk_4.3.0/platform/service/device_init/src/sl_device_init_emu_s2.o
 .data          0x00000000        0x0 ./gecko_sdk_4.3.0/platform/service/device_init/src/sl_device_init_emu_s2.o
 .bss           0x00000000        0x0 ./gecko_sdk_4.3.0/platform/service/device_init/src/sl_device_init_emu_s2.o
 .text          0x00000000        0x0 ./gecko_sdk_4.3.0/platform/service/device_init/src/sl_device_init_hfxo_s2.o
 .data          0x00000000        0x0 ./gecko_sdk_4.3.0/platform/service/device_init/src/sl_device_init_hfxo_s2.o
 .bss           0x00000000        0x0 ./gecko_sdk_4.3.0/platform/service/device_init/src/sl_device_init_hfxo_s2.o
 .text          0x00000000        0x0 ./gecko_sdk_4.3.0/platform/service/device_init/src/sl_device_init_nvic.o
 .data          0x00000000        0x0 ./gecko_sdk_4.3.0/platform/service/device_init/src/sl_device_init_nvic.o
 .bss           0x00000000        0x0 ./gecko_sdk_4.3.0/platform/service/device_init/src/sl_device_init_nvic.o
 .text          0x00000000        0x0 ./gecko_sdk_4.3.0/platform/service/sleeptimer/src/sl_sleeptimer.o
 .data          0x00000000        0x0 ./gecko_sdk_4.3.0/platform/service/sleeptimer/src/sl_sleeptimer.o
 .bss           0x00000000        0x0 ./gecko_sdk_4.3.0/platform/service/sleeptimer/src/sl_sleeptimer.o
 .text.sl_sleeptimer_restart_timer
                0x00000000       0x38 ./gecko_sdk_4.3.0/platform/service/sleeptimer/src/sl_sleeptimer.o
 .text.sl_sleeptimer_start_periodic_timer
                0x00000000       0x4a ./gecko_sdk_4.3.0/platform/service/sleeptimer/src/sl_sleeptimer.o
 .text.sl_sleeptimer_get_timer_time_remaining
                0x00000000       0x70 ./gecko_sdk_4.3.0/platform/service/sleeptimer/src/sl_sleeptimer.o
 .text.sl_sleeptimer_get_remaining_time_of_first_timer
                0x00000000       0x64 ./gecko_sdk_4.3.0/platform/service/sleeptimer/src/sl_sleeptimer.o
 .text.sl_sleeptimer_get_tick_count
                0x00000000       0x18 ./gecko_sdk_4.3.0/platform/service/sleeptimer/src/sl_sleeptimer.o
 .text.sli_sleeptimer_is_power_manager_timer_next_to_expire
                0x00000000       0x28 ./gecko_sdk_4.3.0/platform/service/sleeptimer/src/sl_sleeptimer.o
 .text.sl_sleeptimer_get_tick_count64
                0x00000000       0x34 ./gecko_sdk_4.3.0/platform/service/sleeptimer/src/sl_sleeptimer.o
 .text.sl_sleeptimer_ms32_to_tick
                0x00000000       0x3c ./gecko_sdk_4.3.0/platform/service/sleeptimer/src/sl_sleeptimer.o
 .text.sl_sleeptimer_start_periodic_timer_ms
                0x00000000       0x78 ./gecko_sdk_4.3.0/platform/service/sleeptimer/src/sl_sleeptimer.o
 .text.sl_sleeptimer_restart_periodic_timer_ms
                0x00000000       0x68 ./gecko_sdk_4.3.0/platform/service/sleeptimer/src/sl_sleeptimer.o
 .text.sl_sleeptimer_get_max_ms32_conversion
                0x00000000        0xc ./gecko_sdk_4.3.0/platform/service/sleeptimer/src/sl_sleeptimer.o
 .text.sl_sleeptimer_tick_to_ms
                0x00000000       0x44 ./gecko_sdk_4.3.0/platform/service/sleeptimer/src/sl_sleeptimer.o
 .text.sl_sleeptimer_tick64_to_ms
                0x00000000       0x68 ./gecko_sdk_4.3.0/platform/service/sleeptimer/src/sl_sleeptimer.o
 .text.sl_sleeptimer_is_power_manager_early_restore_timer_latest_to_expire
                0x00000000       0x18 ./gecko_sdk_4.3.0/platform/service/sleeptimer/src/sl_sleeptimer.o
 .text.sl_sleeptimer_get_clock_accuracy
                0x00000000        0x4 ./gecko_sdk_4.3.0/platform/service/sleeptimer/src/sl_sleeptimer.o
 .text.sli_sleeptimer_update_sleep_on_isr_exit
                0x00000000        0xc ./gecko_sdk_4.3.0/platform/service/sleeptimer/src/sl_sleeptimer.o
 .text          0x00000000        0x0 ./gecko_sdk_4.3.0/platform/service/sleeptimer/src/sl_sleeptimer_hal_burtc.o
 .data          0x00000000        0x0 ./gecko_sdk_4.3.0/platform/service/sleeptimer/src/sl_sleeptimer_hal_burtc.o
 .bss           0x00000000        0x0 ./gecko_sdk_4.3.0/platform/service/sleeptimer/src/sl_sleeptimer_hal_burtc.o
 .debug_info    0x00000000       0x6b ./gecko_sdk_4.3.0/platform/service/sleeptimer/src/sl_sleeptimer_hal_burtc.o
 .debug_abbrev  0x00000000       0x26 ./gecko_sdk_4.3.0/platform/service/sleeptimer/src/sl_sleeptimer_hal_burtc.o
 .debug_aranges
                0x00000000       0x18 ./gecko_sdk_4.3.0/platform/service/sleeptimer/src/sl_sleeptimer_hal_burtc.o
 .debug_line    0x00000000       0x1d ./gecko_sdk_4.3.0/platform/service/sleeptimer/src/sl_sleeptimer_hal_burtc.o
 .debug_str     0x00000000      0x227 ./gecko_sdk_4.3.0/platform/service/sleeptimer/src/sl_sleeptimer_hal_burtc.o
 .comment       0x00000000       0x4a ./gecko_sdk_4.3.0/platform/service/sleeptimer/src/sl_sleeptimer_hal_burtc.o
 .ARM.attributes
                0x00000000       0x3a ./gecko_sdk_4.3.0/platform/service/sleeptimer/src/sl_sleeptimer_hal_burtc.o
 .text          0x00000000        0x0 ./gecko_sdk_4.3.0/platform/service/sleeptimer/src/sl_sleeptimer_hal_sysrtc.o
 .data          0x00000000        0x0 ./gecko_sdk_4.3.0/platform/service/sleeptimer/src/sl_sleeptimer_hal_sysrtc.o
 .bss           0x00000000        0x0 ./gecko_sdk_4.3.0/platform/service/sleeptimer/src/sl_sleeptimer_hal_sysrtc.o
 .text.sli_sleeptimer_hal_is_int_status_set
                0x00000000       0x22 ./gecko_sdk_4.3.0/platform/service/sleeptimer/src/sl_sleeptimer_hal_sysrtc.o
 .text.sleeptimer_hal_get_clock_accuracy
                0x00000000        0x6 ./gecko_sdk_4.3.0/platform/service/sleeptimer/src/sl_sleeptimer_hal_sysrtc.o
 .text          0x00000000        0x0 ./gecko_sdk_4.3.0/platform/service/sleeptimer/src/sl_sleeptimer_hal_timer.o
 .data          0x00000000        0x0 ./gecko_sdk_4.3.0/platform/service/sleeptimer/src/sl_sleeptimer_hal_timer.o
 .bss           0x00000000        0x0 ./gecko_sdk_4.3.0/platform/service/sleeptimer/src/sl_sleeptimer_hal_timer.o
 .debug_info    0x00000000       0x6b ./gecko_sdk_4.3.0/platform/service/sleeptimer/src/sl_sleeptimer_hal_timer.o
 .debug_abbrev  0x00000000       0x26 ./gecko_sdk_4.3.0/platform/service/sleeptimer/src/sl_sleeptimer_hal_timer.o
 .debug_aranges
                0x00000000       0x18 ./gecko_sdk_4.3.0/platform/service/sleeptimer/src/sl_sleeptimer_hal_timer.o
 .debug_line    0x00000000       0x1d ./gecko_sdk_4.3.0/platform/service/sleeptimer/src/sl_sleeptimer_hal_timer.o
 .debug_str     0x00000000      0x227 ./gecko_sdk_4.3.0/platform/service/sleeptimer/src/sl_sleeptimer_hal_timer.o
 .comment       0x00000000       0x4a ./gecko_sdk_4.3.0/platform/service/sleeptimer/src/sl_sleeptimer_hal_timer.o
 .ARM.attributes
                0x00000000       0x3a ./gecko_sdk_4.3.0/platform/service/sleeptimer/src/sl_sleeptimer_hal_timer.o
 .text          0x00000000        0x0 ./gecko_sdk_4.3.0/platform/service/system/src/sl_system_init.o
 .data          0x00000000        0x0 ./gecko_sdk_4.3.0/platform/service/system/src/sl_system_init.o
 .bss           0x00000000        0x0 ./gecko_sdk_4.3.0/platform/service/system/src/sl_system_init.o
 .text          0x00000000        0x0 ./gecko_sdk_4.3.0/platform/service/system/src/sl_system_kernel.o
 .data          0x00000000        0x0 ./gecko_sdk_4.3.0/platform/service/system/src/sl_system_kernel.o
 .bss           0x00000000        0x0 ./gecko_sdk_4.3.0/platform/service/system/src/sl_system_kernel.o
 .text          0x00000000        0x0 ./gecko_sdk_4.3.0/platform/service/udelay/src/sl_udelay.o
 .data          0x00000000        0x0 ./gecko_sdk_4.3.0/platform/service/udelay/src/sl_udelay.o
 .bss           0x00000000        0x0 ./gecko_sdk_4.3.0/platform/service/udelay/src/sl_udelay.o
 .data          0x00000000        0x0 ./gecko_sdk_4.3.0/platform/service/udelay/src/sl_udelay_armv6m_gcc.o
 .bss           0x00000000        0x0 ./gecko_sdk_4.3.0/platform/service/udelay/src/sl_udelay_armv6m_gcc.o
 .text          0x00000000        0x0 ./gecko_sdk_4.3.0/util/third_party/freertos/cmsis/Source/cmsis_os2.o
 .data          0x00000000        0x0 ./gecko_sdk_4.3.0/util/third_party/freertos/cmsis/Source/cmsis_os2.o
 .bss           0x00000000        0x0 ./gecko_sdk_4.3.0/util/third_party/freertos/cmsis/Source/cmsis_os2.o
 .text.TimerCallback
                0x00000000       0x14 ./gecko_sdk_4.3.0/util/third_party/freertos/cmsis/Source/cmsis_os2.o
 .rodata.osKernelGetInfo.str1.1
                0x00000000       0x11 ./gecko_sdk_4.3.0/util/third_party/freertos/cmsis/Source/cmsis_os2.o
 .text.osKernelGetInfo
                0x00000000       0x2c ./gecko_sdk_4.3.0/util/third_party/freertos/cmsis/Source/cmsis_os2.o
 .text.osKernelGetState
                0x00000000       0x20 ./gecko_sdk_4.3.0/util/third_party/freertos/cmsis/Source/cmsis_os2.o
 .text.osKernelLock
                0x00000000       0x44 ./gecko_sdk_4.3.0/util/third_party/freertos/cmsis/Source/cmsis_os2.o
 .text.osKernelUnlock
                0x00000000       0x50 ./gecko_sdk_4.3.0/util/third_party/freertos/cmsis/Source/cmsis_os2.o
 .text.osKernelRestoreLock
                0x00000000       0x5c ./gecko_sdk_4.3.0/util/third_party/freertos/cmsis/Source/cmsis_os2.o
 .text.osKernelGetTickCount
                0x00000000       0x28 ./gecko_sdk_4.3.0/util/third_party/freertos/cmsis/Source/cmsis_os2.o
 .text.osKernelGetTickFreq
                0x00000000        0x6 ./gecko_sdk_4.3.0/util/third_party/freertos/cmsis/Source/cmsis_os2.o
 .text.osKernelGetSysTimerCount
                0x00000000       0x40 ./gecko_sdk_4.3.0/util/third_party/freertos/cmsis/Source/cmsis_os2.o
 .text.osKernelGetSysTimerFreq
                0x00000000        0xc ./gecko_sdk_4.3.0/util/third_party/freertos/cmsis/Source/cmsis_os2.o
 .text.osThreadNew
                0x00000000       0xac ./gecko_sdk_4.3.0/util/third_party/freertos/cmsis/Source/cmsis_os2.o
 .text.osThreadGetName
                0x00000000       0x28 ./gecko_sdk_4.3.0/util/third_party/freertos/cmsis/Source/cmsis_os2.o
 .text.osThreadGetId
                0x00000000        0x4 ./gecko_sdk_4.3.0/util/third_party/freertos/cmsis/Source/cmsis_os2.o
 .text.osThreadGetState
                0x00000000       0x3c ./gecko_sdk_4.3.0/util/third_party/freertos/cmsis/Source/cmsis_os2.o
 .text.osThreadGetStackSpace
                0x00000000       0x30 ./gecko_sdk_4.3.0/util/third_party/freertos/cmsis/Source/cmsis_os2.o
 .text.osThreadSetPriority
                0x00000000       0x3c ./gecko_sdk_4.3.0/util/third_party/freertos/cmsis/Source/cmsis_os2.o
 .text.osThreadGetPriority
                0x00000000       0x2c ./gecko_sdk_4.3.0/util/third_party/freertos/cmsis/Source/cmsis_os2.o
 .text.osThreadYield
                0x00000000       0x30 ./gecko_sdk_4.3.0/util/third_party/freertos/cmsis/Source/cmsis_os2.o
 .text.osThreadSuspend
                0x00000000       0x38 ./gecko_sdk_4.3.0/util/third_party/freertos/cmsis/Source/cmsis_os2.o
 .text.osThreadResume
                0x00000000       0x38 ./gecko_sdk_4.3.0/util/third_party/freertos/cmsis/Source/cmsis_os2.o
 .text.osThreadExit
                0x00000000        0xa ./gecko_sdk_4.3.0/util/third_party/freertos/cmsis/Source/cmsis_os2.o
 .text.osThreadTerminate
                0x00000000       0x4c ./gecko_sdk_4.3.0/util/third_party/freertos/cmsis/Source/cmsis_os2.o
 .text.osThreadGetCount
                0x00000000       0x28 ./gecko_sdk_4.3.0/util/third_party/freertos/cmsis/Source/cmsis_os2.o
 .text.osThreadEnumerate
                0x00000000       0x84 ./gecko_sdk_4.3.0/util/third_party/freertos/cmsis/Source/cmsis_os2.o
 .text.osThreadFlagsSet
                0x00000000       0x94 ./gecko_sdk_4.3.0/util/third_party/freertos/cmsis/Source/cmsis_os2.o
 .text.osThreadFlagsClear
                0x00000000       0x6c ./gecko_sdk_4.3.0/util/third_party/freertos/cmsis/Source/cmsis_os2.o
 .text.osThreadFlagsGet
                0x00000000       0x4c ./gecko_sdk_4.3.0/util/third_party/freertos/cmsis/Source/cmsis_os2.o
 .text.osThreadFlagsWait
                0x00000000       0xb8 ./gecko_sdk_4.3.0/util/third_party/freertos/cmsis/Source/cmsis_os2.o
 .text.osDelay  0x00000000       0x30 ./gecko_sdk_4.3.0/util/third_party/freertos/cmsis/Source/cmsis_os2.o
 .text.osDelayUntil
                0x00000000       0x48 ./gecko_sdk_4.3.0/util/third_party/freertos/cmsis/Source/cmsis_os2.o
 .text.osTimerNew
                0x00000000       0x90 ./gecko_sdk_4.3.0/util/third_party/freertos/cmsis/Source/cmsis_os2.o
 .text.osTimerGetName
                0x00000000       0x28 ./gecko_sdk_4.3.0/util/third_party/freertos/cmsis/Source/cmsis_os2.o
 .text.osTimerStart
                0x00000000       0x4c ./gecko_sdk_4.3.0/util/third_party/freertos/cmsis/Source/cmsis_os2.o
 .text.osTimerStop
                0x00000000       0x58 ./gecko_sdk_4.3.0/util/third_party/freertos/cmsis/Source/cmsis_os2.o
 .text.osTimerIsRunning
                0x00000000       0x28 ./gecko_sdk_4.3.0/util/third_party/freertos/cmsis/Source/cmsis_os2.o
 .text.osTimerDelete
                0x00000000       0x60 ./gecko_sdk_4.3.0/util/third_party/freertos/cmsis/Source/cmsis_os2.o
 .text.osEventFlagsNew
                0x00000000       0x3c ./gecko_sdk_4.3.0/util/third_party/freertos/cmsis/Source/cmsis_os2.o
 .text.osEventFlagsSet
                0x00000000       0x68 ./gecko_sdk_4.3.0/util/third_party/freertos/cmsis/Source/cmsis_os2.o
 .text.osEventFlagsClear
                0x00000000       0x5c ./gecko_sdk_4.3.0/util/third_party/freertos/cmsis/Source/cmsis_os2.o
 .text.osEventFlagsGet
                0x00000000       0x34 ./gecko_sdk_4.3.0/util/third_party/freertos/cmsis/Source/cmsis_os2.o
 .text.osEventFlagsWait
                0x00000000       0x70 ./gecko_sdk_4.3.0/util/third_party/freertos/cmsis/Source/cmsis_os2.o
 .text.osEventFlagsDelete
                0x00000000       0x38 ./gecko_sdk_4.3.0/util/third_party/freertos/cmsis/Source/cmsis_os2.o
 .text.osMutexNew
                0x00000000       0x84 ./gecko_sdk_4.3.0/util/third_party/freertos/cmsis/Source/cmsis_os2.o
 .text.osMutexAcquire
                0x00000000       0x60 ./gecko_sdk_4.3.0/util/third_party/freertos/cmsis/Source/cmsis_os2.o
 .text.osMutexRelease
                0x00000000       0x54 ./gecko_sdk_4.3.0/util/third_party/freertos/cmsis/Source/cmsis_os2.o
 .text.osMutexGetOwner
                0x00000000       0x2c ./gecko_sdk_4.3.0/util/third_party/freertos/cmsis/Source/cmsis_os2.o
 .text.osMutexDelete
                0x00000000       0x48 ./gecko_sdk_4.3.0/util/third_party/freertos/cmsis/Source/cmsis_os2.o
 .text.osSemaphoreNew
                0x00000000       0xac ./gecko_sdk_4.3.0/util/third_party/freertos/cmsis/Source/cmsis_os2.o
 .text.osSemaphoreAcquire
                0x00000000       0x6c ./gecko_sdk_4.3.0/util/third_party/freertos/cmsis/Source/cmsis_os2.o
 .text.osSemaphoreRelease
                0x00000000       0x64 ./gecko_sdk_4.3.0/util/third_party/freertos/cmsis/Source/cmsis_os2.o
 .text.osSemaphoreGetCount
                0x00000000       0x30 ./gecko_sdk_4.3.0/util/third_party/freertos/cmsis/Source/cmsis_os2.o
 .text.osSemaphoreDelete
                0x00000000       0x44 ./gecko_sdk_4.3.0/util/third_party/freertos/cmsis/Source/cmsis_os2.o
 .text.osMessageQueueNew
                0x00000000       0x8c ./gecko_sdk_4.3.0/util/third_party/freertos/cmsis/Source/cmsis_os2.o
 .text.osMessageQueuePut
                0x00000000       0x74 ./gecko_sdk_4.3.0/util/third_party/freertos/cmsis/Source/cmsis_os2.o
 .text.osMessageQueueGet
                0x00000000       0x70 ./gecko_sdk_4.3.0/util/third_party/freertos/cmsis/Source/cmsis_os2.o
 .text.osMessageQueueGetCapacity
                0x00000000        0x6 ./gecko_sdk_4.3.0/util/third_party/freertos/cmsis/Source/cmsis_os2.o
 .text.osMessageQueueGetMsgSize
                0x00000000        0x6 ./gecko_sdk_4.3.0/util/third_party/freertos/cmsis/Source/cmsis_os2.o
 .text.osMessageQueueGetCount
                0x00000000        0x4 ./gecko_sdk_4.3.0/util/third_party/freertos/cmsis/Source/cmsis_os2.o
 .text.osMessageQueueGetSpace
                0x00000000       0x40 ./gecko_sdk_4.3.0/util/third_party/freertos/cmsis/Source/cmsis_os2.o
 .text.osMessageQueueReset
                0x00000000       0x38 ./gecko_sdk_4.3.0/util/third_party/freertos/cmsis/Source/cmsis_os2.o
 .text.osMessageQueueDelete
                0x00000000        0x4 ./gecko_sdk_4.3.0/util/third_party/freertos/cmsis/Source/cmsis_os2.o
 .text.osMemoryPoolNew
                0x00000000      0x104 ./gecko_sdk_4.3.0/util/third_party/freertos/cmsis/Source/cmsis_os2.o
 .text.osMemoryPoolGetName
                0x00000000       0x28 ./gecko_sdk_4.3.0/util/third_party/freertos/cmsis/Source/cmsis_os2.o
 .text.osMemoryPoolAlloc
                0x00000000       0xb4 ./gecko_sdk_4.3.0/util/third_party/freertos/cmsis/Source/cmsis_os2.o
 .text.osMemoryPoolFree
                0x00000000       0xbc ./gecko_sdk_4.3.0/util/third_party/freertos/cmsis/Source/cmsis_os2.o
 .text.osMemoryPoolGetCapacity
                0x00000000       0x18 ./gecko_sdk_4.3.0/util/third_party/freertos/cmsis/Source/cmsis_os2.o
 .text.osMemoryPoolGetBlockSize
                0x00000000       0x18 ./gecko_sdk_4.3.0/util/third_party/freertos/cmsis/Source/cmsis_os2.o
 .text.osMemoryPoolGetCount
                0x00000000       0x48 ./gecko_sdk_4.3.0/util/third_party/freertos/cmsis/Source/cmsis_os2.o
 .text.osMemoryPoolGetSpace
                0x00000000       0x3c ./gecko_sdk_4.3.0/util/third_party/freertos/cmsis/Source/cmsis_os2.o
 .text.osMemoryPoolDelete
                0x00000000       0x74 ./gecko_sdk_4.3.0/util/third_party/freertos/cmsis/Source/cmsis_os2.o
 .rodata.CSWTCH.116
                0x00000000        0x5 ./gecko_sdk_4.3.0/util/third_party/freertos/cmsis/Source/cmsis_os2.o
 .text          0x00000000        0x0 ./gecko_sdk_4.3.0/util/third_party/freertos/kernel/croutine.o
 .data          0x00000000        0x0 ./gecko_sdk_4.3.0/util/third_party/freertos/kernel/croutine.o
 .bss           0x00000000        0x0 ./gecko_sdk_4.3.0/util/third_party/freertos/kernel/croutine.o
 .debug_info    0x00000000       0x6b ./gecko_sdk_4.3.0/util/third_party/freertos/kernel/croutine.o
 .debug_abbrev  0x00000000       0x26 ./gecko_sdk_4.3.0/util/third_party/freertos/kernel/croutine.o
 .debug_aranges
                0x00000000       0x18 ./gecko_sdk_4.3.0/util/third_party/freertos/kernel/croutine.o
 .debug_line    0x00000000       0x1d ./gecko_sdk_4.3.0/util/third_party/freertos/kernel/croutine.o
 .debug_str     0x00000000      0x218 ./gecko_sdk_4.3.0/util/third_party/freertos/kernel/croutine.o
 .comment       0x00000000       0x4a ./gecko_sdk_4.3.0/util/third_party/freertos/kernel/croutine.o
 .ARM.attributes
                0x00000000       0x3a ./gecko_sdk_4.3.0/util/third_party/freertos/kernel/croutine.o
 .text          0x00000000        0x0 ./gecko_sdk_4.3.0/util/third_party/freertos/kernel/event_groups.o
 .data          0x00000000        0x0 ./gecko_sdk_4.3.0/util/third_party/freertos/kernel/event_groups.o
 .bss           0x00000000        0x0 ./gecko_sdk_4.3.0/util/third_party/freertos/kernel/event_groups.o
 .rodata.xEventGroupCreateStatic.str1.1
                0x00000000       0x5f ./gecko_sdk_4.3.0/util/third_party/freertos/kernel/event_groups.o
 .text.xEventGroupCreateStatic
                0x00000000       0x3c ./gecko_sdk_4.3.0/util/third_party/freertos/kernel/event_groups.o
 .text.xEventGroupCreate
                0x00000000       0x1c ./gecko_sdk_4.3.0/util/third_party/freertos/kernel/event_groups.o
 .text.xEventGroupWaitBits
                0x00000000       0xe8 ./gecko_sdk_4.3.0/util/third_party/freertos/kernel/event_groups.o
 .text.xEventGroupClearBits
                0x00000000       0x3c ./gecko_sdk_4.3.0/util/third_party/freertos/kernel/event_groups.o
 .text.vEventGroupClearBitsCallback
                0x00000000        0x4 ./gecko_sdk_4.3.0/util/third_party/freertos/kernel/event_groups.o
 .text.xEventGroupClearBitsFromISR
                0x00000000       0x10 ./gecko_sdk_4.3.0/util/third_party/freertos/kernel/event_groups.o
 .text.xEventGroupGetBitsFromISR
                0x00000000       0x12 ./gecko_sdk_4.3.0/util/third_party/freertos/kernel/event_groups.o
 .text.xEventGroupSetBits
                0x00000000       0x7c ./gecko_sdk_4.3.0/util/third_party/freertos/kernel/event_groups.o
 .text.xEventGroupSync
                0x00000000       0xb0 ./gecko_sdk_4.3.0/util/third_party/freertos/kernel/event_groups.o
 .text.vEventGroupSetBitsCallback
                0x00000000        0x4 ./gecko_sdk_4.3.0/util/third_party/freertos/kernel/event_groups.o
 .text.vEventGroupDelete
                0x00000000       0x44 ./gecko_sdk_4.3.0/util/third_party/freertos/kernel/event_groups.o
 .text.xEventGroupSetBitsFromISR
                0x00000000       0x10 ./gecko_sdk_4.3.0/util/third_party/freertos/kernel/event_groups.o
 .text.uxEventGroupGetNumber
                0x00000000        0x6 ./gecko_sdk_4.3.0/util/third_party/freertos/kernel/event_groups.o
 .text.vEventGroupSetNumber
                0x00000000        0x4 ./gecko_sdk_4.3.0/util/third_party/freertos/kernel/event_groups.o
 .debug_info    0x00000000      0xf69 ./gecko_sdk_4.3.0/util/third_party/freertos/kernel/event_groups.o
 .debug_abbrev  0x00000000      0x2c2 ./gecko_sdk_4.3.0/util/third_party/freertos/kernel/event_groups.o
 .debug_loc     0x00000000      0xc72 ./gecko_sdk_4.3.0/util/third_party/freertos/kernel/event_groups.o
 .debug_aranges
                0x00000000       0x88 ./gecko_sdk_4.3.0/util/third_party/freertos/kernel/event_groups.o
 .debug_ranges  0x00000000       0xc8 ./gecko_sdk_4.3.0/util/third_party/freertos/kernel/event_groups.o
 .debug_line    0x00000000      0x961 ./gecko_sdk_4.3.0/util/third_party/freertos/kernel/event_groups.o
 .debug_str     0x00000000      0x858 ./gecko_sdk_4.3.0/util/third_party/freertos/kernel/event_groups.o
 .comment       0x00000000       0x4a ./gecko_sdk_4.3.0/util/third_party/freertos/kernel/event_groups.o
 .debug_frame   0x00000000      0x168 ./gecko_sdk_4.3.0/util/third_party/freertos/kernel/event_groups.o
 .ARM.attributes
                0x00000000       0x3a ./gecko_sdk_4.3.0/util/third_party/freertos/kernel/event_groups.o
 .text          0x00000000        0x0 ./gecko_sdk_4.3.0/util/third_party/freertos/kernel/list.o
 .data          0x00000000        0x0 ./gecko_sdk_4.3.0/util/third_party/freertos/kernel/list.o
 .bss           0x00000000        0x0 ./gecko_sdk_4.3.0/util/third_party/freertos/kernel/list.o
 .text          0x00000000        0x0 ./gecko_sdk_4.3.0/util/third_party/freertos/kernel/queue.o
 .data          0x00000000        0x0 ./gecko_sdk_4.3.0/util/third_party/freertos/kernel/queue.o
 .bss           0x00000000        0x0 ./gecko_sdk_4.3.0/util/third_party/freertos/kernel/queue.o
 .text.xQueueGetMutexHolder
                0x00000000       0x1a ./gecko_sdk_4.3.0/util/third_party/freertos/kernel/queue.o
 .text.xQueueGetMutexHolderFromISR
                0x00000000       0x20 ./gecko_sdk_4.3.0/util/third_party/freertos/kernel/queue.o
 .text.xQueueCreateCountingSemaphoreStatic
                0x00000000       0x40 ./gecko_sdk_4.3.0/util/third_party/freertos/kernel/queue.o
 .text.xQueueCreateCountingSemaphore
                0x00000000       0x34 ./gecko_sdk_4.3.0/util/third_party/freertos/kernel/queue.o
 .text.xQueueCreateMutexStatic
                0x00000000       0x2a ./gecko_sdk_4.3.0/util/third_party/freertos/kernel/queue.o
 .text.xQueueGiveMutexRecursive
                0x00000000       0x38 ./gecko_sdk_4.3.0/util/third_party/freertos/kernel/queue.o
 .text.xQueueCreateMutex
                0x00000000       0x24 ./gecko_sdk_4.3.0/util/third_party/freertos/kernel/queue.o
 .text.xQueueGiveFromISR
                0x00000000       0x94 ./gecko_sdk_4.3.0/util/third_party/freertos/kernel/queue.o
 .text.xQueueSemaphoreTake
                0x00000000      0x13c ./gecko_sdk_4.3.0/util/third_party/freertos/kernel/queue.o
 .text.xQueueTakeMutexRecursive
                0x00000000       0x40 ./gecko_sdk_4.3.0/util/third_party/freertos/kernel/queue.o
 .text.xQueuePeek
                0x00000000      0x104 ./gecko_sdk_4.3.0/util/third_party/freertos/kernel/queue.o
 .text.xQueueReceiveFromISR
                0x00000000       0x94 ./gecko_sdk_4.3.0/util/third_party/freertos/kernel/queue.o
 .text.xQueuePeekFromISR
                0x00000000       0x60 ./gecko_sdk_4.3.0/util/third_party/freertos/kernel/queue.o
 .text.uxQueueMessagesWaiting
                0x00000000       0x28 ./gecko_sdk_4.3.0/util/third_party/freertos/kernel/queue.o
 .text.uxQueueSpacesAvailable
                0x00000000       0x2c ./gecko_sdk_4.3.0/util/third_party/freertos/kernel/queue.o
 .text.uxQueueMessagesWaitingFromISR
                0x00000000       0x18 ./gecko_sdk_4.3.0/util/third_party/freertos/kernel/queue.o
 .text.uxQueueGetQueueNumber
                0x00000000        0x4 ./gecko_sdk_4.3.0/util/third_party/freertos/kernel/queue.o
 .text.vQueueSetQueueNumber
                0x00000000        0x4 ./gecko_sdk_4.3.0/util/third_party/freertos/kernel/queue.o
 .text.ucQueueGetQueueType
                0x00000000        0x6 ./gecko_sdk_4.3.0/util/third_party/freertos/kernel/queue.o
 .text.xQueueIsQueueEmptyFromISR
                0x00000000       0x20 ./gecko_sdk_4.3.0/util/third_party/freertos/kernel/queue.o
 .text.xQueueIsQueueFullFromISR
                0x00000000       0x20 ./gecko_sdk_4.3.0/util/third_party/freertos/kernel/queue.o
 .text.pcQueueGetName
                0x00000000       0x24 ./gecko_sdk_4.3.0/util/third_party/freertos/kernel/queue.o
 .text.vQueueUnregisterQueue
                0x00000000       0x28 ./gecko_sdk_4.3.0/util/third_party/freertos/kernel/queue.o
 .text.vQueueDelete
                0x00000000       0x2c ./gecko_sdk_4.3.0/util/third_party/freertos/kernel/queue.o
 .text          0x00000000        0x0 ./gecko_sdk_4.3.0/util/third_party/freertos/kernel/stream_buffer.o
 .data          0x00000000        0x0 ./gecko_sdk_4.3.0/util/third_party/freertos/kernel/stream_buffer.o
 .bss           0x00000000        0x0 ./gecko_sdk_4.3.0/util/third_party/freertos/kernel/stream_buffer.o
 .text.prvBytesInBuffer
                0x00000000       0x12 ./gecko_sdk_4.3.0/util/third_party/freertos/kernel/stream_buffer.o
 .rodata.prvInitialiseNewStreamBuffer.str1.1
                0x00000000       0x60 ./gecko_sdk_4.3.0/util/third_party/freertos/kernel/stream_buffer.o
 .text.prvInitialiseNewStreamBuffer
                0x00000000       0x3c ./gecko_sdk_4.3.0/util/third_party/freertos/kernel/stream_buffer.o
 .text.prvWriteBytesToBuffer
                0x00000000       0x78 ./gecko_sdk_4.3.0/util/third_party/freertos/kernel/stream_buffer.o
 .text.prvReadBytesFromBuffer
                0x00000000       0x80 ./gecko_sdk_4.3.0/util/third_party/freertos/kernel/stream_buffer.o
 .text.xStreamBufferGenericCreate
                0x00000000       0x70 ./gecko_sdk_4.3.0/util/third_party/freertos/kernel/stream_buffer.o
 .text.xStreamBufferGenericCreateStatic
                0x00000000       0x98 ./gecko_sdk_4.3.0/util/third_party/freertos/kernel/stream_buffer.o
 .text.vStreamBufferDelete
                0x00000000       0x34 ./gecko_sdk_4.3.0/util/third_party/freertos/kernel/stream_buffer.o
 .text.xStreamBufferReset
                0x00000000       0x48 ./gecko_sdk_4.3.0/util/third_party/freertos/kernel/stream_buffer.o
 .text.xStreamBufferSetTriggerLevel
                0x00000000       0x2c ./gecko_sdk_4.3.0/util/third_party/freertos/kernel/stream_buffer.o
 .text.xStreamBufferSpacesAvailable
                0x00000000       0x28 ./gecko_sdk_4.3.0/util/third_party/freertos/kernel/stream_buffer.o
 .text.xStreamBufferBytesAvailable
                0x00000000       0x20 ./gecko_sdk_4.3.0/util/third_party/freertos/kernel/stream_buffer.o
 .text.xStreamBufferSend
                0x00000000      0x12c ./gecko_sdk_4.3.0/util/third_party/freertos/kernel/stream_buffer.o
 .text.xStreamBufferSendFromISR
                0x00000000       0xa8 ./gecko_sdk_4.3.0/util/third_party/freertos/kernel/stream_buffer.o
 .text.xStreamBufferReceive
                0x00000000       0xf0 ./gecko_sdk_4.3.0/util/third_party/freertos/kernel/stream_buffer.o
 .text.xStreamBufferNextMessageLengthBytes
                0x00000000       0x50 ./gecko_sdk_4.3.0/util/third_party/freertos/kernel/stream_buffer.o
 .text.xStreamBufferReceiveFromISR
                0x00000000       0xb0 ./gecko_sdk_4.3.0/util/third_party/freertos/kernel/stream_buffer.o
 .text.xStreamBufferIsEmpty
                0x00000000       0x20 ./gecko_sdk_4.3.0/util/third_party/freertos/kernel/stream_buffer.o
 .text.xStreamBufferIsFull
                0x00000000       0x30 ./gecko_sdk_4.3.0/util/third_party/freertos/kernel/stream_buffer.o
 .text.xStreamBufferSendCompletedFromISR
                0x00000000       0x48 ./gecko_sdk_4.3.0/util/third_party/freertos/kernel/stream_buffer.o
 .text.xStreamBufferReceiveCompletedFromISR
                0x00000000       0x48 ./gecko_sdk_4.3.0/util/third_party/freertos/kernel/stream_buffer.o
 .text.uxStreamBufferGetStreamBufferNumber
                0x00000000        0x4 ./gecko_sdk_4.3.0/util/third_party/freertos/kernel/stream_buffer.o
 .text.vStreamBufferSetStreamBufferNumber
                0x00000000        0x4 ./gecko_sdk_4.3.0/util/third_party/freertos/kernel/stream_buffer.o
 .text.ucStreamBufferGetStreamBufferType
                0x00000000        0x8 ./gecko_sdk_4.3.0/util/third_party/freertos/kernel/stream_buffer.o
 .debug_info    0x00000000     0x1d19 ./gecko_sdk_4.3.0/util/third_party/freertos/kernel/stream_buffer.o
 .debug_abbrev  0x00000000      0x361 ./gecko_sdk_4.3.0/util/third_party/freertos/kernel/stream_buffer.o
 .debug_loc     0x00000000     0x1cbf ./gecko_sdk_4.3.0/util/third_party/freertos/kernel/stream_buffer.o
 .debug_aranges
                0x00000000       0xd0 ./gecko_sdk_4.3.0/util/third_party/freertos/kernel/stream_buffer.o
 .debug_ranges  0x00000000      0x130 ./gecko_sdk_4.3.0/util/third_party/freertos/kernel/stream_buffer.o
 .debug_line    0x00000000     0x1082 ./gecko_sdk_4.3.0/util/third_party/freertos/kernel/stream_buffer.o
 .debug_str     0x00000000      0x9fd ./gecko_sdk_4.3.0/util/third_party/freertos/kernel/stream_buffer.o
 .comment       0x00000000       0x4a ./gecko_sdk_4.3.0/util/third_party/freertos/kernel/stream_buffer.o
 .debug_frame   0x00000000      0x2e0 ./gecko_sdk_4.3.0/util/third_party/freertos/kernel/stream_buffer.o
 .ARM.attributes
                0x00000000       0x3a ./gecko_sdk_4.3.0/util/third_party/freertos/kernel/stream_buffer.o
 .text          0x00000000        0x0 ./gecko_sdk_4.3.0/util/third_party/freertos/kernel/tasks.o
 .data          0x00000000        0x0 ./gecko_sdk_4.3.0/util/third_party/freertos/kernel/tasks.o
 .bss           0x00000000        0x0 ./gecko_sdk_4.3.0/util/third_party/freertos/kernel/tasks.o
 .text.vTaskDelete
                0x00000000       0xa0 ./gecko_sdk_4.3.0/util/third_party/freertos/kernel/tasks.o
 .text.eTaskGetState
                0x00000000       0x80 ./gecko_sdk_4.3.0/util/third_party/freertos/kernel/tasks.o
 .text.uxTaskPriorityGet
                0x00000000       0x20 ./gecko_sdk_4.3.0/util/third_party/freertos/kernel/tasks.o
 .text.uxTaskPriorityGetFromISR
                0x00000000       0x1c ./gecko_sdk_4.3.0/util/third_party/freertos/kernel/tasks.o
 .text.vTaskPrioritySet
                0x00000000       0xb8 ./gecko_sdk_4.3.0/util/third_party/freertos/kernel/tasks.o
 .text.vTaskResume
                0x00000000       0x78 ./gecko_sdk_4.3.0/util/third_party/freertos/kernel/tasks.o
 .text.vTaskEndScheduler
                0x00000000       0x18 ./gecko_sdk_4.3.0/util/third_party/freertos/kernel/tasks.o
 .text.xTaskGetTickCountFromISR
                0x00000000        0xc ./gecko_sdk_4.3.0/util/third_party/freertos/kernel/tasks.o
 .text.uxTaskGetNumberOfTasks
                0x00000000        0xc ./gecko_sdk_4.3.0/util/third_party/freertos/kernel/tasks.o
 .text.pcTaskGetName
                0x00000000       0x24 ./gecko_sdk_4.3.0/util/third_party/freertos/kernel/tasks.o
 .text.xTaskDelayUntil
                0x00000000       0x7c ./gecko_sdk_4.3.0/util/third_party/freertos/kernel/tasks.o
 .text.xTaskCatchUpTicks
                0x00000000       0x34 ./gecko_sdk_4.3.0/util/third_party/freertos/kernel/tasks.o
 .text.vTaskPlaceOnUnorderedEventList
                0x00000000       0x50 ./gecko_sdk_4.3.0/util/third_party/freertos/kernel/tasks.o
 .text.vTaskRemoveFromUnorderedEventList
                0x00000000       0x84 ./gecko_sdk_4.3.0/util/third_party/freertos/kernel/tasks.o
 .text.vTaskSetTimeOutState
                0x00000000       0x34 ./gecko_sdk_4.3.0/util/third_party/freertos/kernel/tasks.o
 .text.uxTaskGetTaskNumber
                0x00000000        0x6 ./gecko_sdk_4.3.0/util/third_party/freertos/kernel/tasks.o
 .text.vTaskSetTaskNumber
                0x00000000        0x6 ./gecko_sdk_4.3.0/util/third_party/freertos/kernel/tasks.o
 .text.vTaskGetInfo
                0x00000000       0x7c ./gecko_sdk_4.3.0/util/third_party/freertos/kernel/tasks.o
 .text.prvListTasksWithinSingleList
                0x00000000       0x60 ./gecko_sdk_4.3.0/util/third_party/freertos/kernel/tasks.o
 .text.uxTaskGetSystemState
                0x00000000       0xa0 ./gecko_sdk_4.3.0/util/third_party/freertos/kernel/tasks.o
 .text.uxTaskGetStackHighWaterMark
                0x00000000       0x20 ./gecko_sdk_4.3.0/util/third_party/freertos/kernel/tasks.o
 .text.xTaskGetCurrentTaskHandle
                0x00000000        0xc ./gecko_sdk_4.3.0/util/third_party/freertos/kernel/tasks.o
 .text.xTaskPriorityInherit
                0x00000000       0x84 ./gecko_sdk_4.3.0/util/third_party/freertos/kernel/tasks.o
 .text.vTaskPriorityDisinheritAfterTimeout
                0x00000000       0x9c ./gecko_sdk_4.3.0/util/third_party/freertos/kernel/tasks.o
 .text.uxTaskResetEventItemValue
                0x00000000       0x18 ./gecko_sdk_4.3.0/util/third_party/freertos/kernel/tasks.o
 .text.pvTaskIncrementMutexHeldCount
                0x00000000       0x18 ./gecko_sdk_4.3.0/util/third_party/freertos/kernel/tasks.o
 .text.ulTaskGenericNotifyTake
                0x00000000       0x7c ./gecko_sdk_4.3.0/util/third_party/freertos/kernel/tasks.o
 .text.xTaskGenericNotifyWait
                0x00000000       0xa8 ./gecko_sdk_4.3.0/util/third_party/freertos/kernel/tasks.o
 .text.xTaskGenericNotify
                0x00000000       0xf8 ./gecko_sdk_4.3.0/util/third_party/freertos/kernel/tasks.o
 .text.xTaskGenericNotifyFromISR
                0x00000000      0x128 ./gecko_sdk_4.3.0/util/third_party/freertos/kernel/tasks.o
 .text.vTaskGenericNotifyGiveFromISR
                0x00000000       0xc4 ./gecko_sdk_4.3.0/util/third_party/freertos/kernel/tasks.o
 .text.xTaskGenericNotifyStateClear
                0x00000000       0x40 ./gecko_sdk_4.3.0/util/third_party/freertos/kernel/tasks.o
 .text.ulTaskGenericNotifyValueClear
                0x00000000       0x30 ./gecko_sdk_4.3.0/util/third_party/freertos/kernel/tasks.o
 .text          0x00000000        0x0 ./gecko_sdk_4.3.0/util/third_party/freertos/kernel/timers.o
 .data          0x00000000        0x0 ./gecko_sdk_4.3.0/util/third_party/freertos/kernel/timers.o
 .bss           0x00000000        0x0 ./gecko_sdk_4.3.0/util/third_party/freertos/kernel/timers.o
 .text.xTimerCreate
                0x00000000       0x58 ./gecko_sdk_4.3.0/util/third_party/freertos/kernel/timers.o
 .text.xTimerCreateStatic
                0x00000000       0x74 ./gecko_sdk_4.3.0/util/third_party/freertos/kernel/timers.o
 .text.xTimerGetTimerDaemonTaskHandle
                0x00000000       0x20 ./gecko_sdk_4.3.0/util/third_party/freertos/kernel/timers.o
 .text.xTimerGetPeriod
                0x00000000       0x18 ./gecko_sdk_4.3.0/util/third_party/freertos/kernel/timers.o
 .text.vTimerSetReloadMode
                0x00000000       0x38 ./gecko_sdk_4.3.0/util/third_party/freertos/kernel/timers.o
 .text.uxTimerGetReloadMode
                0x00000000       0x2c ./gecko_sdk_4.3.0/util/third_party/freertos/kernel/timers.o
 .text.xTimerGetExpiryTime
                0x00000000       0x18 ./gecko_sdk_4.3.0/util/third_party/freertos/kernel/timers.o
 .text.pcTimerGetName
                0x00000000       0x18 ./gecko_sdk_4.3.0/util/third_party/freertos/kernel/timers.o
 .text.xTimerIsTimerActive
                0x00000000       0x2c ./gecko_sdk_4.3.0/util/third_party/freertos/kernel/timers.o
 .text.pvTimerGetTimerID
                0x00000000       0x28 ./gecko_sdk_4.3.0/util/third_party/freertos/kernel/timers.o
 .text.vTimerSetTimerID
                0x00000000       0x24 ./gecko_sdk_4.3.0/util/third_party/freertos/kernel/timers.o
 .text.xTimerPendFunctionCallFromISR
                0x00000000       0x28 ./gecko_sdk_4.3.0/util/third_party/freertos/kernel/timers.o
 .text.xTimerPendFunctionCall
                0x00000000       0x44 ./gecko_sdk_4.3.0/util/third_party/freertos/kernel/timers.o
 .text.uxTimerGetTimerNumber
                0x00000000        0x4 ./gecko_sdk_4.3.0/util/third_party/freertos/kernel/timers.o
 .text.vTimerSetTimerNumber
                0x00000000        0x4 ./gecko_sdk_4.3.0/util/third_party/freertos/kernel/timers.o
 .text          0x00000000        0x0 ./gecko_sdk_4.3.0/util/third_party/freertos/kernel/portable/GCC/ARM_CM33_NTZ/non_secure/port.o
 .data          0x00000000        0x0 ./gecko_sdk_4.3.0/util/third_party/freertos/kernel/portable/GCC/ARM_CM33_NTZ/non_secure/port.o
 .bss           0x00000000        0x0 ./gecko_sdk_4.3.0/util/third_party/freertos/kernel/portable/GCC/ARM_CM33_NTZ/non_secure/port.o
 .text.vPortEndScheduler
                0x00000000       0x20 ./gecko_sdk_4.3.0/util/third_party/freertos/kernel/portable/GCC/ARM_CM33_NTZ/non_secure/port.o
 .text.xPortIsInsideInterrupt
                0x00000000        0xc ./gecko_sdk_4.3.0/util/third_party/freertos/kernel/portable/GCC/ARM_CM33_NTZ/non_secure/port.o
 .text          0x00000000        0x0 ./gecko_sdk_4.3.0/util/third_party/freertos/kernel/portable/GCC/ARM_CM33_NTZ/non_secure/portasm.o
 .data          0x00000000        0x0 ./gecko_sdk_4.3.0/util/third_party/freertos/kernel/portable/GCC/ARM_CM33_NTZ/non_secure/portasm.o
 .bss           0x00000000        0x0 ./gecko_sdk_4.3.0/util/third_party/freertos/kernel/portable/GCC/ARM_CM33_NTZ/non_secure/portasm.o
 .text.xIsPrivileged
                0x00000000       0x10 ./gecko_sdk_4.3.0/util/third_party/freertos/kernel/portable/GCC/ARM_CM33_NTZ/non_secure/portasm.o
 .text.vRaisePrivilege
                0x00000000        0xe ./gecko_sdk_4.3.0/util/third_party/freertos/kernel/portable/GCC/ARM_CM33_NTZ/non_secure/portasm.o
 .text.vResetPrivilege
                0x00000000        0xe ./gecko_sdk_4.3.0/util/third_party/freertos/kernel/portable/GCC/ARM_CM33_NTZ/non_secure/portasm.o
 .text          0x00000000        0x0 ./gecko_sdk_4.3.0/util/third_party/freertos/kernel/portable/MemMang/heap_4.o
 .data          0x00000000        0x0 ./gecko_sdk_4.3.0/util/third_party/freertos/kernel/portable/MemMang/heap_4.o
 .bss           0x00000000        0x0 ./gecko_sdk_4.3.0/util/third_party/freertos/kernel/portable/MemMang/heap_4.o
 .text.xPortGetFreeHeapSize
                0x00000000        0xc ./gecko_sdk_4.3.0/util/third_party/freertos/kernel/portable/MemMang/heap_4.o
 .text.xPortGetMinimumEverFreeHeapSize
                0x00000000        0xc ./gecko_sdk_4.3.0/util/third_party/freertos/kernel/portable/MemMang/heap_4.o
 .text.vPortInitialiseBlocks
                0x00000000        0x2 ./gecko_sdk_4.3.0/util/third_party/freertos/kernel/portable/MemMang/heap_4.o
 .text.vPortGetHeapStats
                0x00000000       0x84 ./gecko_sdk_4.3.0/util/third_party/freertos/kernel/portable/MemMang/heap_4.o
 .text          0x00000000       0xa0 c:/siliconlabs/simplicitystudio/v5/developer/toolchains/gnu_arm/10.3_2021.10/bin/../lib/gcc/arm-none-eabi/10.3.1/thumb/v8-m.main+fp/hard\libgcc.a(_aeabi_ldivmod.o)
 .data          0x00000000        0x0 c:/siliconlabs/simplicitystudio/v5/developer/toolchains/gnu_arm/10.3_2021.10/bin/../lib/gcc/arm-none-eabi/10.3.1/thumb/v8-m.main+fp/hard\libgcc.a(_aeabi_ldivmod.o)
 .bss           0x00000000        0x0 c:/siliconlabs/simplicitystudio/v5/developer/toolchains/gnu_arm/10.3_2021.10/bin/../lib/gcc/arm-none-eabi/10.3.1/thumb/v8-m.main+fp/hard\libgcc.a(_aeabi_ldivmod.o)
 .debug_frame   0x00000000       0x44 c:/siliconlabs/simplicitystudio/v5/developer/toolchains/gnu_arm/10.3_2021.10/bin/../lib/gcc/arm-none-eabi/10.3.1/thumb/v8-m.main+fp/hard\libgcc.a(_aeabi_ldivmod.o)
 .ARM.attributes
                0x00000000       0x22 c:/siliconlabs/simplicitystudio/v5/developer/toolchains/gnu_arm/10.3_2021.10/bin/../lib/gcc/arm-none-eabi/10.3.1/thumb/v8-m.main+fp/hard\libgcc.a(_aeabi_ldivmod.o)
 .data          0x00000000        0x0 c:/siliconlabs/simplicitystudio/v5/developer/toolchains/gnu_arm/10.3_2021.10/bin/../lib/gcc/arm-none-eabi/10.3.1/thumb/v8-m.main+fp/hard\libgcc.a(_aeabi_uldivmod.o)
 .bss           0x00000000        0x0 c:/siliconlabs/simplicitystudio/v5/developer/toolchains/gnu_arm/10.3_2021.10/bin/../lib/gcc/arm-none-eabi/10.3.1/thumb/v8-m.main+fp/hard\libgcc.a(_aeabi_uldivmod.o)
 .data          0x00000000        0x0 c:/siliconlabs/simplicitystudio/v5/developer/toolchains/gnu_arm/10.3_2021.10/bin/../lib/gcc/arm-none-eabi/10.3.1/thumb/v8-m.main+fp/hard\libgcc.a(_udivmoddi4.o)
 .bss           0x00000000        0x0 c:/siliconlabs/simplicitystudio/v5/developer/toolchains/gnu_arm/10.3_2021.10/bin/../lib/gcc/arm-none-eabi/10.3.1/thumb/v8-m.main+fp/hard\libgcc.a(_udivmoddi4.o)
 .ARM.extab     0x00000000        0x0 c:/siliconlabs/simplicitystudio/v5/developer/toolchains/gnu_arm/10.3_2021.10/bin/../lib/gcc/arm-none-eabi/10.3.1/thumb/v8-m.main+fp/hard\libgcc.a(_udivmoddi4.o)
 .data          0x00000000        0x0 c:/siliconlabs/simplicitystudio/v5/developer/toolchains/gnu_arm/10.3_2021.10/bin/../lib/gcc/arm-none-eabi/10.3.1/thumb/v8-m.main+fp/hard\libgcc.a(_dvmd_tls.o)
 .bss           0x00000000        0x0 c:/siliconlabs/simplicitystudio/v5/developer/toolchains/gnu_arm/10.3_2021.10/bin/../lib/gcc/arm-none-eabi/10.3.1/thumb/v8-m.main+fp/hard\libgcc.a(_dvmd_tls.o)
 .text          0x00000000        0x0 c:/siliconlabs/simplicitystudio/v5/developer/toolchains/gnu_arm/10.3_2021.10/bin/../lib/gcc/arm-none-eabi/10.3.1/../../../../arm-none-eabi/lib/thumb/v8-m.main+fp/hard\libc_nano.a(lib_a-exit.o)
 .data          0x00000000        0x0 c:/siliconlabs/simplicitystudio/v5/developer/toolchains/gnu_arm/10.3_2021.10/bin/../lib/gcc/arm-none-eabi/10.3.1/../../../../arm-none-eabi/lib/thumb/v8-m.main+fp/hard\libc_nano.a(lib_a-exit.o)
 .bss           0x00000000        0x0 c:/siliconlabs/simplicitystudio/v5/developer/toolchains/gnu_arm/10.3_2021.10/bin/../lib/gcc/arm-none-eabi/10.3.1/../../../../arm-none-eabi/lib/thumb/v8-m.main+fp/hard\libc_nano.a(lib_a-exit.o)
 .text          0x00000000        0x0 c:/siliconlabs/simplicitystudio/v5/developer/toolchains/gnu_arm/10.3_2021.10/bin/../lib/gcc/arm-none-eabi/10.3.1/../../../../arm-none-eabi/lib/thumb/v8-m.main+fp/hard\libc_nano.a(lib_a-impure.o)
 .data          0x00000000        0x0 c:/siliconlabs/simplicitystudio/v5/developer/toolchains/gnu_arm/10.3_2021.10/bin/../lib/gcc/arm-none-eabi/10.3.1/../../../../arm-none-eabi/lib/thumb/v8-m.main+fp/hard\libc_nano.a(lib_a-impure.o)
 .bss           0x00000000        0x0 c:/siliconlabs/simplicitystudio/v5/developer/toolchains/gnu_arm/10.3_2021.10/bin/../lib/gcc/arm-none-eabi/10.3.1/../../../../arm-none-eabi/lib/thumb/v8-m.main+fp/hard\libc_nano.a(lib_a-impure.o)
 .text          0x00000000        0x0 c:/siliconlabs/simplicitystudio/v5/developer/toolchains/gnu_arm/10.3_2021.10/bin/../lib/gcc/arm-none-eabi/10.3.1/../../../../arm-none-eabi/lib/thumb/v8-m.main+fp/hard\libc_nano.a(lib_a-init.o)
 .data          0x00000000        0x0 c:/siliconlabs/simplicitystudio/v5/developer/toolchains/gnu_arm/10.3_2021.10/bin/../lib/gcc/arm-none-eabi/10.3.1/../../../../arm-none-eabi/lib/thumb/v8-m.main+fp/hard\libc_nano.a(lib_a-init.o)
 .bss           0x00000000        0x0 c:/siliconlabs/simplicitystudio/v5/developer/toolchains/gnu_arm/10.3_2021.10/bin/../lib/gcc/arm-none-eabi/10.3.1/../../../../arm-none-eabi/lib/thumb/v8-m.main+fp/hard\libc_nano.a(lib_a-init.o)
 .text          0x00000000        0x0 c:/siliconlabs/simplicitystudio/v5/developer/toolchains/gnu_arm/10.3_2021.10/bin/../lib/gcc/arm-none-eabi/10.3.1/../../../../arm-none-eabi/lib/thumb/v8-m.main+fp/hard\libc_nano.a(lib_a-memcpy-stub.o)
 .data          0x00000000        0x0 c:/siliconlabs/simplicitystudio/v5/developer/toolchains/gnu_arm/10.3_2021.10/bin/../lib/gcc/arm-none-eabi/10.3.1/../../../../arm-none-eabi/lib/thumb/v8-m.main+fp/hard\libc_nano.a(lib_a-memcpy-stub.o)
 .bss           0x00000000        0x0 c:/siliconlabs/simplicitystudio/v5/developer/toolchains/gnu_arm/10.3_2021.10/bin/../lib/gcc/arm-none-eabi/10.3.1/../../../../arm-none-eabi/lib/thumb/v8-m.main+fp/hard\libc_nano.a(lib_a-memcpy-stub.o)
 .text          0x00000000        0x0 c:/siliconlabs/simplicitystudio/v5/developer/toolchains/gnu_arm/10.3_2021.10/bin/../lib/gcc/arm-none-eabi/10.3.1/../../../../arm-none-eabi/lib/thumb/v8-m.main+fp/hard\libc_nano.a(lib_a-memset.o)
 .data          0x00000000        0x0 c:/siliconlabs/simplicitystudio/v5/developer/toolchains/gnu_arm/10.3_2021.10/bin/../lib/gcc/arm-none-eabi/10.3.1/../../../../arm-none-eabi/lib/thumb/v8-m.main+fp/hard\libc_nano.a(lib_a-memset.o)
 .bss           0x00000000        0x0 c:/siliconlabs/simplicitystudio/v5/developer/toolchains/gnu_arm/10.3_2021.10/bin/../lib/gcc/arm-none-eabi/10.3.1/../../../../arm-none-eabi/lib/thumb/v8-m.main+fp/hard\libc_nano.a(lib_a-memset.o)
 .text          0x00000000        0x0 c:/siliconlabs/simplicitystudio/v5/developer/toolchains/gnu_arm/10.3_2021.10/bin/../lib/gcc/arm-none-eabi/10.3.1/../../../../arm-none-eabi/lib/thumb/v8-m.main+fp/hard\libc_nano.a(lib_a-sprintf.o)
 .data          0x00000000        0x0 c:/siliconlabs/simplicitystudio/v5/developer/toolchains/gnu_arm/10.3_2021.10/bin/../lib/gcc/arm-none-eabi/10.3.1/../../../../arm-none-eabi/lib/thumb/v8-m.main+fp/hard\libc_nano.a(lib_a-sprintf.o)
 .bss           0x00000000        0x0 c:/siliconlabs/simplicitystudio/v5/developer/toolchains/gnu_arm/10.3_2021.10/bin/../lib/gcc/arm-none-eabi/10.3.1/../../../../arm-none-eabi/lib/thumb/v8-m.main+fp/hard\libc_nano.a(lib_a-sprintf.o)
 .text._sprintf_r
                0x00000000       0x38 c:/siliconlabs/simplicitystudio/v5/developer/toolchains/gnu_arm/10.3_2021.10/bin/../lib/gcc/arm-none-eabi/10.3.1/../../../../arm-none-eabi/lib/thumb/v8-m.main+fp/hard\libc_nano.a(lib_a-sprintf.o)
 .data          0x00000000        0x0 c:/siliconlabs/simplicitystudio/v5/developer/toolchains/gnu_arm/10.3_2021.10/bin/../lib/gcc/arm-none-eabi/10.3.1/../../../../arm-none-eabi/lib/thumb/v8-m.main+fp/hard\libc_nano.a(lib_a-strlen.o)
 .bss           0x00000000        0x0 c:/siliconlabs/simplicitystudio/v5/developer/toolchains/gnu_arm/10.3_2021.10/bin/../lib/gcc/arm-none-eabi/10.3.1/../../../../arm-none-eabi/lib/thumb/v8-m.main+fp/hard\libc_nano.a(lib_a-strlen.o)
 .text          0x00000000        0x0 c:/siliconlabs/simplicitystudio/v5/developer/toolchains/gnu_arm/10.3_2021.10/bin/../lib/gcc/arm-none-eabi/10.3.1/../../../../arm-none-eabi/lib/thumb/v8-m.main+fp/hard\libc_nano.a(lib_a-nano-svfprintf.o)
 .data          0x00000000        0x0 c:/siliconlabs/simplicitystudio/v5/developer/toolchains/gnu_arm/10.3_2021.10/bin/../lib/gcc/arm-none-eabi/10.3.1/../../../../arm-none-eabi/lib/thumb/v8-m.main+fp/hard\libc_nano.a(lib_a-nano-svfprintf.o)
 .bss           0x00000000        0x0 c:/siliconlabs/simplicitystudio/v5/developer/toolchains/gnu_arm/10.3_2021.10/bin/../lib/gcc/arm-none-eabi/10.3.1/../../../../arm-none-eabi/lib/thumb/v8-m.main+fp/hard\libc_nano.a(lib_a-nano-svfprintf.o)
 .text.__ssprint_r
                0x00000000       0xf6 c:/siliconlabs/simplicitystudio/v5/developer/toolchains/gnu_arm/10.3_2021.10/bin/../lib/gcc/arm-none-eabi/10.3.1/../../../../arm-none-eabi/lib/thumb/v8-m.main+fp/hard\libc_nano.a(lib_a-nano-svfprintf.o)
 .text          0x00000000        0x0 c:/siliconlabs/simplicitystudio/v5/developer/toolchains/gnu_arm/10.3_2021.10/bin/../lib/gcc/arm-none-eabi/10.3.1/../../../../arm-none-eabi/lib/thumb/v8-m.main+fp/hard\libc_nano.a(lib_a-nano-vfprintf_i.o)
 .data          0x00000000        0x0 c:/siliconlabs/simplicitystudio/v5/developer/toolchains/gnu_arm/10.3_2021.10/bin/../lib/gcc/arm-none-eabi/10.3.1/../../../../arm-none-eabi/lib/thumb/v8-m.main+fp/hard\libc_nano.a(lib_a-nano-vfprintf_i.o)
 .bss           0x00000000        0x0 c:/siliconlabs/simplicitystudio/v5/developer/toolchains/gnu_arm/10.3_2021.10/bin/../lib/gcc/arm-none-eabi/10.3.1/../../../../arm-none-eabi/lib/thumb/v8-m.main+fp/hard\libc_nano.a(lib_a-nano-vfprintf_i.o)
 .text          0x00000000        0x0 c:/siliconlabs/simplicitystudio/v5/developer/toolchains/gnu_arm/10.3_2021.10/bin/../lib/gcc/arm-none-eabi/10.3.1/../../../../arm-none-eabi/lib/thumb/v8-m.main+fp/hard\libc_nano.a(lib_a-memchr-stub.o)
 .data          0x00000000        0x0 c:/siliconlabs/simplicitystudio/v5/developer/toolchains/gnu_arm/10.3_2021.10/bin/../lib/gcc/arm-none-eabi/10.3.1/../../../../arm-none-eabi/lib/thumb/v8-m.main+fp/hard\libc_nano.a(lib_a-memchr-stub.o)
 .bss           0x00000000        0x0 c:/siliconlabs/simplicitystudio/v5/developer/toolchains/gnu_arm/10.3_2021.10/bin/../lib/gcc/arm-none-eabi/10.3.1/../../../../arm-none-eabi/lib/thumb/v8-m.main+fp/hard\libc_nano.a(lib_a-memchr-stub.o)
 .text          0x00000000        0x0 c:/siliconlabs/simplicitystudio/v5/developer/toolchains/gnu_arm/10.3_2021.10/bin/../lib/gcc/arm-none-eabi/10.3.1/../../../../arm-none-eabi/lib/thumb/v8-m.main+fp/hard\libc_nano.a(lib_a-memmove.o)
 .data          0x00000000        0x0 c:/siliconlabs/simplicitystudio/v5/developer/toolchains/gnu_arm/10.3_2021.10/bin/../lib/gcc/arm-none-eabi/10.3.1/../../../../arm-none-eabi/lib/thumb/v8-m.main+fp/hard\libc_nano.a(lib_a-memmove.o)
 .bss           0x00000000        0x0 c:/siliconlabs/simplicitystudio/v5/developer/toolchains/gnu_arm/10.3_2021.10/bin/../lib/gcc/arm-none-eabi/10.3.1/../../../../arm-none-eabi/lib/thumb/v8-m.main+fp/hard\libc_nano.a(lib_a-memmove.o)
 .text          0x00000000        0x0 c:/siliconlabs/simplicitystudio/v5/developer/toolchains/gnu_arm/10.3_2021.10/bin/../lib/gcc/arm-none-eabi/10.3.1/../../../../arm-none-eabi/lib/thumb/v8-m.main+fp/hard\libc_nano.a(lib_a-nano-freer.o)
 .data          0x00000000        0x0 c:/siliconlabs/simplicitystudio/v5/developer/toolchains/gnu_arm/10.3_2021.10/bin/../lib/gcc/arm-none-eabi/10.3.1/../../../../arm-none-eabi/lib/thumb/v8-m.main+fp/hard\libc_nano.a(lib_a-nano-freer.o)
 .bss           0x00000000        0x0 c:/siliconlabs/simplicitystudio/v5/developer/toolchains/gnu_arm/10.3_2021.10/bin/../lib/gcc/arm-none-eabi/10.3.1/../../../../arm-none-eabi/lib/thumb/v8-m.main+fp/hard\libc_nano.a(lib_a-nano-freer.o)
 .text          0x00000000        0x0 c:/siliconlabs/simplicitystudio/v5/developer/toolchains/gnu_arm/10.3_2021.10/bin/../lib/gcc/arm-none-eabi/10.3.1/../../../../arm-none-eabi/lib/thumb/v8-m.main+fp/hard\libc_nano.a(lib_a-nano-mallocr.o)
 .data          0x00000000        0x0 c:/siliconlabs/simplicitystudio/v5/developer/toolchains/gnu_arm/10.3_2021.10/bin/../lib/gcc/arm-none-eabi/10.3.1/../../../../arm-none-eabi/lib/thumb/v8-m.main+fp/hard\libc_nano.a(lib_a-nano-mallocr.o)
 .bss           0x00000000        0x0 c:/siliconlabs/simplicitystudio/v5/developer/toolchains/gnu_arm/10.3_2021.10/bin/../lib/gcc/arm-none-eabi/10.3.1/../../../../arm-none-eabi/lib/thumb/v8-m.main+fp/hard\libc_nano.a(lib_a-nano-mallocr.o)
 .text          0x00000000        0x0 c:/siliconlabs/simplicitystudio/v5/developer/toolchains/gnu_arm/10.3_2021.10/bin/../lib/gcc/arm-none-eabi/10.3.1/../../../../arm-none-eabi/lib/thumb/v8-m.main+fp/hard\libc_nano.a(lib_a-nano-reallocr.o)
 .data          0x00000000        0x0 c:/siliconlabs/simplicitystudio/v5/developer/toolchains/gnu_arm/10.3_2021.10/bin/../lib/gcc/arm-none-eabi/10.3.1/../../../../arm-none-eabi/lib/thumb/v8-m.main+fp/hard\libc_nano.a(lib_a-nano-reallocr.o)
 .bss           0x00000000        0x0 c:/siliconlabs/simplicitystudio/v5/developer/toolchains/gnu_arm/10.3_2021.10/bin/../lib/gcc/arm-none-eabi/10.3.1/../../../../arm-none-eabi/lib/thumb/v8-m.main+fp/hard\libc_nano.a(lib_a-nano-reallocr.o)
 .text          0x00000000        0x0 c:/siliconlabs/simplicitystudio/v5/developer/toolchains/gnu_arm/10.3_2021.10/bin/../lib/gcc/arm-none-eabi/10.3.1/../../../../arm-none-eabi/lib/thumb/v8-m.main+fp/hard\libc_nano.a(lib_a-sbrkr.o)
 .data          0x00000000        0x0 c:/siliconlabs/simplicitystudio/v5/developer/toolchains/gnu_arm/10.3_2021.10/bin/../lib/gcc/arm-none-eabi/10.3.1/../../../../arm-none-eabi/lib/thumb/v8-m.main+fp/hard\libc_nano.a(lib_a-sbrkr.o)
 .bss           0x00000000        0x0 c:/siliconlabs/simplicitystudio/v5/developer/toolchains/gnu_arm/10.3_2021.10/bin/../lib/gcc/arm-none-eabi/10.3.1/../../../../arm-none-eabi/lib/thumb/v8-m.main+fp/hard\libc_nano.a(lib_a-sbrkr.o)
 .text          0x00000000        0x0 c:/siliconlabs/simplicitystudio/v5/developer/toolchains/gnu_arm/10.3_2021.10/bin/../lib/gcc/arm-none-eabi/10.3.1/../../../../arm-none-eabi/lib/thumb/v8-m.main+fp/hard\libc_nano.a(lib_a-mlock.o)
 .data          0x00000000        0x0 c:/siliconlabs/simplicitystudio/v5/developer/toolchains/gnu_arm/10.3_2021.10/bin/../lib/gcc/arm-none-eabi/10.3.1/../../../../arm-none-eabi/lib/thumb/v8-m.main+fp/hard\libc_nano.a(lib_a-mlock.o)
 .bss           0x00000000        0x0 c:/siliconlabs/simplicitystudio/v5/developer/toolchains/gnu_arm/10.3_2021.10/bin/../lib/gcc/arm-none-eabi/10.3.1/../../../../arm-none-eabi/lib/thumb/v8-m.main+fp/hard\libc_nano.a(lib_a-mlock.o)
 .text          0x00000000        0x0 c:/siliconlabs/simplicitystudio/v5/developer/toolchains/gnu_arm/10.3_2021.10/bin/../lib/gcc/arm-none-eabi/10.3.1/../../../../arm-none-eabi/lib/thumb/v8-m.main+fp/hard\libc_nano.a(lib_a-nano-msizer.o)
 .data          0x00000000        0x0 c:/siliconlabs/simplicitystudio/v5/developer/toolchains/gnu_arm/10.3_2021.10/bin/../lib/gcc/arm-none-eabi/10.3.1/../../../../arm-none-eabi/lib/thumb/v8-m.main+fp/hard\libc_nano.a(lib_a-nano-msizer.o)
 .bss           0x00000000        0x0 c:/siliconlabs/simplicitystudio/v5/developer/toolchains/gnu_arm/10.3_2021.10/bin/../lib/gcc/arm-none-eabi/10.3.1/../../../../arm-none-eabi/lib/thumb/v8-m.main+fp/hard\libc_nano.a(lib_a-nano-msizer.o)
 .text          0x00000000        0x0 c:/siliconlabs/simplicitystudio/v5/developer/toolchains/gnu_arm/10.3_2021.10/bin/../lib/gcc/arm-none-eabi/10.3.1/../../../../arm-none-eabi/lib/thumb/v8-m.main+fp/hard\libc_nano.a(lib_a-reent.o)
 .data          0x00000000        0x0 c:/siliconlabs/simplicitystudio/v5/developer/toolchains/gnu_arm/10.3_2021.10/bin/../lib/gcc/arm-none-eabi/10.3.1/../../../../arm-none-eabi/lib/thumb/v8-m.main+fp/hard\libc_nano.a(lib_a-reent.o)
 .bss           0x00000000        0x0 c:/siliconlabs/simplicitystudio/v5/developer/toolchains/gnu_arm/10.3_2021.10/bin/../lib/gcc/arm-none-eabi/10.3.1/../../../../arm-none-eabi/lib/thumb/v8-m.main+fp/hard\libc_nano.a(lib_a-reent.o)
 .text.cleanup_glue
                0x00000000       0x1a c:/siliconlabs/simplicitystudio/v5/developer/toolchains/gnu_arm/10.3_2021.10/bin/../lib/gcc/arm-none-eabi/10.3.1/../../../../arm-none-eabi/lib/thumb/v8-m.main+fp/hard\libc_nano.a(lib_a-reent.o)
 .text._reclaim_reent
                0x00000000       0xb8 c:/siliconlabs/simplicitystudio/v5/developer/toolchains/gnu_arm/10.3_2021.10/bin/../lib/gcc/arm-none-eabi/10.3.1/../../../../arm-none-eabi/lib/thumb/v8-m.main+fp/hard\libc_nano.a(lib_a-reent.o)
 .text          0x00000000        0x0 c:/siliconlabs/simplicitystudio/v5/developer/toolchains/gnu_arm/10.3_2021.10/bin/../lib/gcc/arm-none-eabi/10.3.1/../../../../arm-none-eabi/lib/thumb/v8-m.main+fp/hard\libc_nano.a(lib_a-lock.o)
 .data          0x00000000        0x0 c:/siliconlabs/simplicitystudio/v5/developer/toolchains/gnu_arm/10.3_2021.10/bin/../lib/gcc/arm-none-eabi/10.3.1/../../../../arm-none-eabi/lib/thumb/v8-m.main+fp/hard\libc_nano.a(lib_a-lock.o)
 .bss           0x00000000        0x0 c:/siliconlabs/simplicitystudio/v5/developer/toolchains/gnu_arm/10.3_2021.10/bin/../lib/gcc/arm-none-eabi/10.3.1/../../../../arm-none-eabi/lib/thumb/v8-m.main+fp/hard\libc_nano.a(lib_a-lock.o)
 .text.__retarget_lock_init
                0x00000000        0x2 c:/siliconlabs/simplicitystudio/v5/developer/toolchains/gnu_arm/10.3_2021.10/bin/../lib/gcc/arm-none-eabi/10.3.1/../../../../arm-none-eabi/lib/thumb/v8-m.main+fp/hard\libc_nano.a(lib_a-lock.o)
 .text.__retarget_lock_init_recursive
                0x00000000        0x2 c:/siliconlabs/simplicitystudio/v5/developer/toolchains/gnu_arm/10.3_2021.10/bin/../lib/gcc/arm-none-eabi/10.3.1/../../../../arm-none-eabi/lib/thumb/v8-m.main+fp/hard\libc_nano.a(lib_a-lock.o)
 .text.__retarget_lock_close
                0x00000000        0x2 c:/siliconlabs/simplicitystudio/v5/developer/toolchains/gnu_arm/10.3_2021.10/bin/../lib/gcc/arm-none-eabi/10.3.1/../../../../arm-none-eabi/lib/thumb/v8-m.main+fp/hard\libc_nano.a(lib_a-lock.o)
 .text.__retarget_lock_close_recursive
                0x00000000        0x2 c:/siliconlabs/simplicitystudio/v5/developer/toolchains/gnu_arm/10.3_2021.10/bin/../lib/gcc/arm-none-eabi/10.3.1/../../../../arm-none-eabi/lib/thumb/v8-m.main+fp/hard\libc_nano.a(lib_a-lock.o)
 .text.__retarget_lock_acquire
                0x00000000        0x2 c:/siliconlabs/simplicitystudio/v5/developer/toolchains/gnu_arm/10.3_2021.10/bin/../lib/gcc/arm-none-eabi/10.3.1/../../../../arm-none-eabi/lib/thumb/v8-m.main+fp/hard\libc_nano.a(lib_a-lock.o)
 .text.__retarget_lock_try_acquire
                0x00000000        0x4 c:/siliconlabs/simplicitystudio/v5/developer/toolchains/gnu_arm/10.3_2021.10/bin/../lib/gcc/arm-none-eabi/10.3.1/../../../../arm-none-eabi/lib/thumb/v8-m.main+fp/hard\libc_nano.a(lib_a-lock.o)
 .text.__retarget_lock_try_acquire_recursive
                0x00000000        0x4 c:/siliconlabs/simplicitystudio/v5/developer/toolchains/gnu_arm/10.3_2021.10/bin/../lib/gcc/arm-none-eabi/10.3.1/../../../../arm-none-eabi/lib/thumb/v8-m.main+fp/hard\libc_nano.a(lib_a-lock.o)
 .text.__retarget_lock_release
                0x00000000        0x2 c:/siliconlabs/simplicitystudio/v5/developer/toolchains/gnu_arm/10.3_2021.10/bin/../lib/gcc/arm-none-eabi/10.3.1/../../../../arm-none-eabi/lib/thumb/v8-m.main+fp/hard\libc_nano.a(lib_a-lock.o)
 .bss.__lock___arc4random_mutex
                0x00000000        0x1 c:/siliconlabs/simplicitystudio/v5/developer/toolchains/gnu_arm/10.3_2021.10/bin/../lib/gcc/arm-none-eabi/10.3.1/../../../../arm-none-eabi/lib/thumb/v8-m.main+fp/hard\libc_nano.a(lib_a-lock.o)
 .bss.__lock___at_quick_exit_mutex
                0x00000000        0x1 c:/siliconlabs/simplicitystudio/v5/developer/toolchains/gnu_arm/10.3_2021.10/bin/../lib/gcc/arm-none-eabi/10.3.1/../../../../arm-none-eabi/lib/thumb/v8-m.main+fp/hard\libc_nano.a(lib_a-lock.o)
 .bss.__lock___atexit_recursive_mutex
                0x00000000        0x1 c:/siliconlabs/simplicitystudio/v5/developer/toolchains/gnu_arm/10.3_2021.10/bin/../lib/gcc/arm-none-eabi/10.3.1/../../../../arm-none-eabi/lib/thumb/v8-m.main+fp/hard\libc_nano.a(lib_a-lock.o)
 .bss.__lock___dd_hash_mutex
                0x00000000        0x1 c:/siliconlabs/simplicitystudio/v5/developer/toolchains/gnu_arm/10.3_2021.10/bin/../lib/gcc/arm-none-eabi/10.3.1/../../../../arm-none-eabi/lib/thumb/v8-m.main+fp/hard\libc_nano.a(lib_a-lock.o)
 .bss.__lock___env_recursive_mutex
                0x00000000        0x1 c:/siliconlabs/simplicitystudio/v5/developer/toolchains/gnu_arm/10.3_2021.10/bin/../lib/gcc/arm-none-eabi/10.3.1/../../../../arm-none-eabi/lib/thumb/v8-m.main+fp/hard\libc_nano.a(lib_a-lock.o)
 .bss.__lock___sfp_recursive_mutex
                0x00000000        0x1 c:/siliconlabs/simplicitystudio/v5/developer/toolchains/gnu_arm/10.3_2021.10/bin/../lib/gcc/arm-none-eabi/10.3.1/../../../../arm-none-eabi/lib/thumb/v8-m.main+fp/hard\libc_nano.a(lib_a-lock.o)
 .bss.__lock___sinit_recursive_mutex
                0x00000000        0x1 c:/siliconlabs/simplicitystudio/v5/developer/toolchains/gnu_arm/10.3_2021.10/bin/../lib/gcc/arm-none-eabi/10.3.1/../../../../arm-none-eabi/lib/thumb/v8-m.main+fp/hard\libc_nano.a(lib_a-lock.o)
 .bss.__lock___tz_mutex
                0x00000000        0x1 c:/siliconlabs/simplicitystudio/v5/developer/toolchains/gnu_arm/10.3_2021.10/bin/../lib/gcc/arm-none-eabi/10.3.1/../../../../arm-none-eabi/lib/thumb/v8-m.main+fp/hard\libc_nano.a(lib_a-lock.o)
 .text          0x00000000        0x0 c:/siliconlabs/simplicitystudio/v5/developer/toolchains/gnu_arm/10.3_2021.10/bin/../lib/gcc/arm-none-eabi/10.3.1/../../../../arm-none-eabi/lib/thumb/v8-m.main+fp/hard\libnosys.a(_exit.o)
 .data          0x00000000        0x0 c:/siliconlabs/simplicitystudio/v5/developer/toolchains/gnu_arm/10.3_2021.10/bin/../lib/gcc/arm-none-eabi/10.3.1/../../../../arm-none-eabi/lib/thumb/v8-m.main+fp/hard\libnosys.a(_exit.o)
 .bss           0x00000000        0x0 c:/siliconlabs/simplicitystudio/v5/developer/toolchains/gnu_arm/10.3_2021.10/bin/../lib/gcc/arm-none-eabi/10.3.1/../../../../arm-none-eabi/lib/thumb/v8-m.main+fp/hard\libnosys.a(_exit.o)
 .text          0x00000000        0x0 c:/siliconlabs/simplicitystudio/v5/developer/toolchains/gnu_arm/10.3_2021.10/bin/../lib/gcc/arm-none-eabi/10.3.1/thumb/v8-m.main+fp/hard/crtend.o
 .data          0x00000000        0x0 c:/siliconlabs/simplicitystudio/v5/developer/toolchains/gnu_arm/10.3_2021.10/bin/../lib/gcc/arm-none-eabi/10.3.1/thumb/v8-m.main+fp/hard/crtend.o
 .bss           0x00000000        0x0 c:/siliconlabs/simplicitystudio/v5/developer/toolchains/gnu_arm/10.3_2021.10/bin/../lib/gcc/arm-none-eabi/10.3.1/thumb/v8-m.main+fp/hard/crtend.o
 .rodata        0x00000000       0x24 c:/siliconlabs/simplicitystudio/v5/developer/toolchains/gnu_arm/10.3_2021.10/bin/../lib/gcc/arm-none-eabi/10.3.1/thumb/v8-m.main+fp/hard/crtend.o
 .eh_frame      0x00000000        0x4 c:/siliconlabs/simplicitystudio/v5/developer/toolchains/gnu_arm/10.3_2021.10/bin/../lib/gcc/arm-none-eabi/10.3.1/thumb/v8-m.main+fp/hard/crtend.o
 .ARM.attributes
                0x00000000       0x38 c:/siliconlabs/simplicitystudio/v5/developer/toolchains/gnu_arm/10.3_2021.10/bin/../lib/gcc/arm-none-eabi/10.3.1/thumb/v8-m.main+fp/hard/crtend.o
 .text          0x00000000        0x0 c:/siliconlabs/simplicitystudio/v5/developer/toolchains/gnu_arm/10.3_2021.10/bin/../lib/gcc/arm-none-eabi/10.3.1/thumb/v8-m.main+fp/hard/crtn.o
 .data          0x00000000        0x0 c:/siliconlabs/simplicitystudio/v5/developer/toolchains/gnu_arm/10.3_2021.10/bin/../lib/gcc/arm-none-eabi/10.3.1/thumb/v8-m.main+fp/hard/crtn.o
 .bss           0x00000000        0x0 c:/siliconlabs/simplicitystudio/v5/developer/toolchains/gnu_arm/10.3_2021.10/bin/../lib/gcc/arm-none-eabi/10.3.1/thumb/v8-m.main+fp/hard/crtn.o

Memory Configuration

Name             Origin             Length             Attributes
FLASH            0x08000000         0x0007e000         xr
RAM              0x20000000         0x00010000         xrw
*default*        0x00000000         0xffffffff

Linker script and memory map

LOAD c:/siliconlabs/simplicitystudio/v5/developer/toolchains/gnu_arm/10.3_2021.10/bin/../lib/gcc/arm-none-eabi/10.3.1/thumb/v8-m.main+fp/hard/crti.o
LOAD c:/siliconlabs/simplicitystudio/v5/developer/toolchains/gnu_arm/10.3_2021.10/bin/../lib/gcc/arm-none-eabi/10.3.1/thumb/v8-m.main+fp/hard/crtbegin.o
LOAD c:/siliconlabs/simplicitystudio/v5/developer/toolchains/gnu_arm/10.3_2021.10/bin/../lib/gcc/arm-none-eabi/10.3.1/../../../../arm-none-eabi/lib/thumb/v8-m.main+fp/hard/crt0.o
START GROUP
LOAD ./Handle_event/I2C_handle.o
LOAD ./Handle_event/TFT.o
LOAD ./Handle_event/blink.o
LOAD ./Handle_event/button.o
LOAD ./RTOS_test.o
LOAD ./app.o
LOAD ./main.o
LOAD ./autogen/sl_board_default_init.o
LOAD ./autogen/sl_device_init_clocks.o
LOAD ./autogen/sl_event_handler.o
LOAD ./autogen/sl_i2cspm_init.o
LOAD ./autogen/sl_simple_button_instances.o
LOAD ./autogen/sl_simple_led_instances.o
LOAD ./gecko_sdk_4.3.0/app/bluetooth/common/sensor_rht/sl_sensor_rht.o
LOAD ./gecko_sdk_4.3.0/app/bluetooth/common/sensor_select/sl_sensor_select.o
LOAD ./gecko_sdk_4.3.0/hardware/board/src/sl_board_control_gpio.o
LOAD ./gecko_sdk_4.3.0/hardware/board/src/sl_board_init.o
LOAD ./gecko_sdk_4.3.0/hardware/driver/configuration_over_swo/src/sl_cos.o
LOAD ./gecko_sdk_4.3.0/hardware/driver/joystick/src/sl_joystick.o
LOAD ./gecko_sdk_4.3.0/hardware/driver/memlcd/src/memlcd_usart/sl_memlcd_spi.o
LOAD ./gecko_sdk_4.3.0/hardware/driver/memlcd/src/sl_memlcd.o
LOAD ./gecko_sdk_4.3.0/hardware/driver/memlcd/src/sl_memlcd_display.o
LOAD ./gecko_sdk_4.3.0/hardware/driver/mx25_flash_shutdown/src/sl_mx25_flash_shutdown_usart/sl_mx25_flash_shutdown.o
LOAD ./gecko_sdk_4.3.0/hardware/driver/si70xx/src/sl_si70xx.o
LOAD ./gecko_sdk_4.3.0/platform/CMSIS/RTOS2/Source/os_systick.o
LOAD ./gecko_sdk_4.3.0/platform/Device/SiliconLabs/ZGM23/Source/startup_zgm23.o
LOAD ./gecko_sdk_4.3.0/platform/Device/SiliconLabs/ZGM23/Source/system_zgm23.o
LOAD ./gecko_sdk_4.3.0/platform/common/src/sl_assert.o
LOAD ./gecko_sdk_4.3.0/platform/common/toolchain/src/sl_memory.o
LOAD ./gecko_sdk_4.3.0/platform/driver/button/src/sl_button.o
LOAD ./gecko_sdk_4.3.0/platform/driver/button/src/sl_simple_button.o
LOAD ./gecko_sdk_4.3.0/platform/driver/debug/src/sl_debug_swo.o
LOAD ./gecko_sdk_4.3.0/platform/driver/i2cspm/src/sl_i2cspm.o
LOAD ./gecko_sdk_4.3.0/platform/driver/leddrv/src/sl_led.o
LOAD ./gecko_sdk_4.3.0/platform/driver/leddrv/src/sl_simple_led.o
LOAD ./gecko_sdk_4.3.0/platform/emdrv/gpiointerrupt/src/gpiointerrupt.o
LOAD ./gecko_sdk_4.3.0/platform/emlib/src/em_burtc.o
LOAD ./gecko_sdk_4.3.0/platform/emlib/src/em_cmu.o
LOAD ./gecko_sdk_4.3.0/platform/emlib/src/em_core.o
LOAD ./gecko_sdk_4.3.0/platform/emlib/src/em_emu.o
LOAD ./gecko_sdk_4.3.0/platform/emlib/src/em_gpio.o
LOAD ./gecko_sdk_4.3.0/platform/emlib/src/em_i2c.o
LOAD ./gecko_sdk_4.3.0/platform/emlib/src/em_iadc.o
LOAD ./gecko_sdk_4.3.0/platform/emlib/src/em_msc.o
LOAD ./gecko_sdk_4.3.0/platform/emlib/src/em_prs.o
LOAD ./gecko_sdk_4.3.0/platform/emlib/src/em_system.o
LOAD ./gecko_sdk_4.3.0/platform/emlib/src/em_timer.o
LOAD ./gecko_sdk_4.3.0/platform/emlib/src/em_usart.o
LOAD ./gecko_sdk_4.3.0/platform/middleware/glib/dmd/display/dmd_memlcd.o
LOAD ./gecko_sdk_4.3.0/platform/middleware/glib/fonts/glib_font_narrow_6x8.o
LOAD ./gecko_sdk_4.3.0/platform/middleware/glib/fonts/glib_font_normal_8x8.o
LOAD ./gecko_sdk_4.3.0/platform/middleware/glib/fonts/glib_font_number_16x20.o
LOAD ./gecko_sdk_4.3.0/platform/middleware/glib/glib/bmp.o
LOAD ./gecko_sdk_4.3.0/platform/middleware/glib/glib/glib.o
LOAD ./gecko_sdk_4.3.0/platform/middleware/glib/glib/glib_bitmap.o
LOAD ./gecko_sdk_4.3.0/platform/middleware/glib/glib/glib_circle.o
LOAD ./gecko_sdk_4.3.0/platform/middleware/glib/glib/glib_line.o
LOAD ./gecko_sdk_4.3.0/platform/middleware/glib/glib/glib_polygon.o
LOAD ./gecko_sdk_4.3.0/platform/middleware/glib/glib/glib_rectangle.o
LOAD ./gecko_sdk_4.3.0/platform/middleware/glib/glib/glib_string.o
LOAD ./gecko_sdk_4.3.0/platform/peripheral/src/peripheral_sysrtc.o
LOAD ./gecko_sdk_4.3.0/platform/service/device_init/src/sl_device_init_dcdc_s2.o
LOAD ./gecko_sdk_4.3.0/platform/service/device_init/src/sl_device_init_emu_s2.o
LOAD ./gecko_sdk_4.3.0/platform/service/device_init/src/sl_device_init_hfxo_s2.o
LOAD ./gecko_sdk_4.3.0/platform/service/device_init/src/sl_device_init_nvic.o
LOAD ./gecko_sdk_4.3.0/platform/service/sleeptimer/src/sl_sleeptimer.o
LOAD ./gecko_sdk_4.3.0/platform/service/sleeptimer/src/sl_sleeptimer_hal_burtc.o
LOAD ./gecko_sdk_4.3.0/platform/service/sleeptimer/src/sl_sleeptimer_hal_sysrtc.o
LOAD ./gecko_sdk_4.3.0/platform/service/sleeptimer/src/sl_sleeptimer_hal_timer.o
LOAD ./gecko_sdk_4.3.0/platform/service/system/src/sl_system_init.o
LOAD ./gecko_sdk_4.3.0/platform/service/system/src/sl_system_kernel.o
LOAD ./gecko_sdk_4.3.0/platform/service/udelay/src/sl_udelay.o
LOAD ./gecko_sdk_4.3.0/platform/service/udelay/src/sl_udelay_armv6m_gcc.o
LOAD ./gecko_sdk_4.3.0/util/third_party/freertos/cmsis/Source/cmsis_os2.o
LOAD ./gecko_sdk_4.3.0/util/third_party/freertos/kernel/croutine.o
LOAD ./gecko_sdk_4.3.0/util/third_party/freertos/kernel/event_groups.o
LOAD ./gecko_sdk_4.3.0/util/third_party/freertos/kernel/list.o
LOAD ./gecko_sdk_4.3.0/util/third_party/freertos/kernel/queue.o
LOAD ./gecko_sdk_4.3.0/util/third_party/freertos/kernel/stream_buffer.o
LOAD ./gecko_sdk_4.3.0/util/third_party/freertos/kernel/tasks.o
LOAD ./gecko_sdk_4.3.0/util/third_party/freertos/kernel/timers.o
LOAD ./gecko_sdk_4.3.0/util/third_party/freertos/kernel/portable/GCC/ARM_CM33_NTZ/non_secure/port.o
LOAD ./gecko_sdk_4.3.0/util/third_party/freertos/kernel/portable/GCC/ARM_CM33_NTZ/non_secure/portasm.o
LOAD ./gecko_sdk_4.3.0/util/third_party/freertos/kernel/portable/MemMang/heap_4.o
LOAD c:/siliconlabs/simplicitystudio/v5/developer/toolchains/gnu_arm/10.3_2021.10/bin/../lib/gcc/arm-none-eabi/10.3.1/thumb/v8-m.main+fp/hard\libgcc.a
LOAD c:/siliconlabs/simplicitystudio/v5/developer/toolchains/gnu_arm/10.3_2021.10/bin/../lib/gcc/arm-none-eabi/10.3.1/../../../../arm-none-eabi/lib/thumb/v8-m.main+fp/hard\libc_nano.a
LOAD c:/siliconlabs/simplicitystudio/v5/developer/toolchains/gnu_arm/10.3_2021.10/bin/../lib/gcc/arm-none-eabi/10.3.1/../../../../arm-none-eabi/lib/thumb/v8-m.main+fp/hard\libm.a
LOAD c:/siliconlabs/simplicitystudio/v5/developer/toolchains/gnu_arm/10.3_2021.10/bin/../lib/gcc/arm-none-eabi/10.3.1/../../../../arm-none-eabi/lib/thumb/v8-m.main+fp/hard\libnosys.a
END GROUP
START GROUP
LOAD c:/siliconlabs/simplicitystudio/v5/developer/toolchains/gnu_arm/10.3_2021.10/bin/../lib/gcc/arm-none-eabi/10.3.1/thumb/v8-m.main+fp/hard\libgcc.a
LOAD c:/siliconlabs/simplicitystudio/v5/developer/toolchains/gnu_arm/10.3_2021.10/bin/../lib/gcc/arm-none-eabi/10.3.1/../../../../arm-none-eabi/lib/thumb/v8-m.main+fp/hard\libc_nano.a
LOAD c:/siliconlabs/simplicitystudio/v5/developer/toolchains/gnu_arm/10.3_2021.10/bin/../lib/gcc/arm-none-eabi/10.3.1/../../../../arm-none-eabi/lib/thumb/v8-m.main+fp/hard\libnosys.a
END GROUP
START GROUP
LOAD c:/siliconlabs/simplicitystudio/v5/developer/toolchains/gnu_arm/10.3_2021.10/bin/../lib/gcc/arm-none-eabi/10.3.1/thumb/v8-m.main+fp/hard\libgcc.a
LOAD c:/siliconlabs/simplicitystudio/v5/developer/toolchains/gnu_arm/10.3_2021.10/bin/../lib/gcc/arm-none-eabi/10.3.1/../../../../arm-none-eabi/lib/thumb/v8-m.main+fp/hard\libg_nano.a
LOAD c:/siliconlabs/simplicitystudio/v5/developer/toolchains/gnu_arm/10.3_2021.10/bin/../lib/gcc/arm-none-eabi/10.3.1/../../../../arm-none-eabi/lib/thumb/v8-m.main+fp/hard\libc_nano.a
END GROUP
START GROUP
LOAD c:/siliconlabs/simplicitystudio/v5/developer/toolchains/gnu_arm/10.3_2021.10/bin/../lib/gcc/arm-none-eabi/10.3.1/thumb/v8-m.main+fp/hard\libgcc.a
LOAD c:/siliconlabs/simplicitystudio/v5/developer/toolchains/gnu_arm/10.3_2021.10/bin/../lib/gcc/arm-none-eabi/10.3.1/../../../../arm-none-eabi/lib/thumb/v8-m.main+fp/hard\libc_nano.a
END GROUP
LOAD c:/siliconlabs/simplicitystudio/v5/developer/toolchains/gnu_arm/10.3_2021.10/bin/../lib/gcc/arm-none-eabi/10.3.1/thumb/v8-m.main+fp/hard/crtend.o
LOAD c:/siliconlabs/simplicitystudio/v5/developer/toolchains/gnu_arm/10.3_2021.10/bin/../lib/gcc/arm-none-eabi/10.3.1/thumb/v8-m.main+fp/hard/crtn.o

.text           0x08000000     0x791c
                0x08000000                linker_vectors_begin = .
 *(.vectors)
 .vectors       0x08000000      0x170 ./gecko_sdk_4.3.0/platform/Device/SiliconLabs/ZGM23/Source/startup_zgm23.o
                0x08000000                __Vectors
                0x08000170                linker_vectors_end = .
                0x08000170                __Vectors_End = .
                0x08000170                __Vectors_Size = (__Vectors_End - __Vectors)
                0x08000170                linker_code_begin = .
 *(SORT_BY_ALIGNMENT(.text*))
 .text          0x08000170        0x8 ./gecko_sdk_4.3.0/platform/service/udelay/src/sl_udelay_armv6m_gcc.o
                0x08000170                sli_delay_loop
 *fill*         0x08000178        0x8 
 .text.vRestoreContextOfFirstTask
                0x08000180       0x34 ./gecko_sdk_4.3.0/util/third_party/freertos/kernel/portable/GCC/ARM_CM33_NTZ/non_secure/portasm.o
                0x08000180                vRestoreContextOfFirstTask
 *fill*         0x080001b4        0xc 
 .text.vStartFirstTask
                0x080001c0       0x24 ./gecko_sdk_4.3.0/util/third_party/freertos/kernel/portable/GCC/ARM_CM33_NTZ/non_secure/portasm.o
                0x080001c0                vStartFirstTask
 *fill*         0x080001e4        0xc 
 .text.PendSV_Handler
                0x080001f0       0x64 ./gecko_sdk_4.3.0/util/third_party/freertos/kernel/portable/GCC/ARM_CM33_NTZ/non_secure/portasm.o
                0x080001f0                PendSV_Handler
 *fill*         0x08000254        0xc 
 .text.SVC_Handler
                0x08000260       0x24 ./gecko_sdk_4.3.0/util/third_party/freertos/kernel/portable/GCC/ARM_CM33_NTZ/non_secure/portasm.o
                0x08000260                SVC_Handler
 .text          0x08000284       0x40 c:/siliconlabs/simplicitystudio/v5/developer/toolchains/gnu_arm/10.3_2021.10/bin/../lib/gcc/arm-none-eabi/10.3.1/thumb/v8-m.main+fp/hard/crtbegin.o
 .text          0x080002c4       0x7c c:/siliconlabs/simplicitystudio/v5/developer/toolchains/gnu_arm/10.3_2021.10/bin/../lib/gcc/arm-none-eabi/10.3.1/../../../../arm-none-eabi/lib/thumb/v8-m.main+fp/hard/crt0.o
                0x080002c4                _stack_init
                0x080002cc                _start
                0x080002cc                _mainCRTStartup
 .text.read_sensor_TASK
                0x08000340       0x38 ./Handle_event/I2C_handle.o
                0x08000340                read_sensor_TASK
 .text.memlcd_app_init
                0x08000378       0xa4 ./Handle_event/TFT.o
                0x08000378                memlcd_app_init
 .text.display_TASK
                0x0800041c       0xc0 ./Handle_event/TFT.o
                0x0800041c                display_TASK
 .text.Blink_TASK
                0x080004dc       0x94 ./Handle_event/blink.o
                0x080004dc                Blink_TASK
 .text.task_init
                0x08000570       0x9c ./RTOS_test.o
                0x08000570                task_init
 .text.sl_button_on_change
                0x0800060c       0x74 ./app.o
                0x0800060c                sl_button_on_change
 .text.sl_device_init_clocks
                0x08000680       0xac ./autogen/sl_device_init_clocks.o
                0x08000680                sl_device_init_clocks
 .text.sl_platform_init
                0x0800072c       0x98 ./autogen/sl_event_handler.o
                0x0800072c                sl_platform_init
 .text.sl_i2cspm_init_instances
                0x080007c4       0x18 ./autogen/sl_i2cspm_init.o
                0x080007c4                sl_i2cspm_init_instances
 .text.sl_simple_button_init_instances
                0x080007dc       0x1c ./autogen/sl_simple_button_instances.o
                0x080007dc                sl_simple_button_init_instances
 .text.sl_simple_led_init_instances
                0x080007f8       0x1c ./autogen/sl_simple_led_instances.o
                0x080007f8                sl_simple_led_init_instances
 .text.sl_board_enable_sensor
                0x08000814       0x60 ./gecko_sdk_4.3.0/hardware/board/src/sl_board_control_gpio.o
                0x08000814                sl_board_enable_sensor
 .text.sli_memlcd_spi_init
                0x08000874       0x98 ./gecko_sdk_4.3.0/hardware/driver/memlcd/src/memlcd_usart/sl_memlcd_spi.o
                0x08000874                sli_memlcd_spi_init
 .text.sl_memlcd_power_on.part.0
                0x0800090c       0x2c ./gecko_sdk_4.3.0/hardware/driver/memlcd/src/sl_memlcd.o
 .text.extcomin_toggle
                0x08000938       0x10 ./gecko_sdk_4.3.0/hardware/driver/memlcd/src/sl_memlcd.o
 .text.sl_memlcd_clear
                0x08000948       0x50 ./gecko_sdk_4.3.0/hardware/driver/memlcd/src/sl_memlcd.o
                0x08000948                sl_memlcd_clear
 .text.sl_memlcd_configure
                0x08000998       0x5c ./gecko_sdk_4.3.0/hardware/driver/memlcd/src/sl_memlcd.o
                0x08000998                sl_memlcd_configure
 .text.sl_memlcd_draw
                0x080009f4       0xb8 ./gecko_sdk_4.3.0/hardware/driver/memlcd/src/sl_memlcd.o
                0x080009f4                sl_memlcd_draw
 .text.sl_memlcd_get
                0x08000aac       0x18 ./gecko_sdk_4.3.0/hardware/driver/memlcd/src/sl_memlcd.o
                0x08000aac                sl_memlcd_get
 .text.sl_memlcd_init
                0x08000ac4       0x20 ./gecko_sdk_4.3.0/hardware/driver/memlcd/src/sl_memlcd_display.o
                0x08000ac4                sl_memlcd_init
 .text.cs_high  0x08000ae4       0x10 ./gecko_sdk_4.3.0/hardware/driver/mx25_flash_shutdown/src/sl_mx25_flash_shutdown_usart/sl_mx25_flash_shutdown.o
 .text.cs_low   0x08000af4       0x10 ./gecko_sdk_4.3.0/hardware/driver/mx25_flash_shutdown/src/sl_mx25_flash_shutdown_usart/sl_mx25_flash_shutdown.o
 .text.sl_mx25_flash_shutdown
                0x08000b04      0x118 ./gecko_sdk_4.3.0/hardware/driver/mx25_flash_shutdown/src/sl_mx25_flash_shutdown_usart/sl_mx25_flash_shutdown.o
                0x08000b04                sl_mx25_flash_shutdown
 .text.Reset_Handler
                0x08000c1c       0x60 ./gecko_sdk_4.3.0/platform/Device/SiliconLabs/ZGM23/Source/startup_zgm23.o
                0x08000c1c                Reset_Handler
 .text.SystemInit
                0x08000c7c       0x68 ./gecko_sdk_4.3.0/platform/Device/SiliconLabs/ZGM23/Source/system_zgm23.o
                0x08000c7c                SystemInit
 .text.SystemHFRCODPLLClockGet
                0x08000ce4        0xc ./gecko_sdk_4.3.0/platform/Device/SiliconLabs/ZGM23/Source/system_zgm23.o
                0x08000ce4                SystemHFRCODPLLClockGet
 .text.SystemSYSCLKGet
                0x08000cf0       0x34 ./gecko_sdk_4.3.0/platform/Device/SiliconLabs/ZGM23/Source/system_zgm23.o
                0x08000cf0                SystemSYSCLKGet
 .text.SystemHCLKGet
                0x08000d24       0x24 ./gecko_sdk_4.3.0/platform/Device/SiliconLabs/ZGM23/Source/system_zgm23.o
                0x08000d24                SystemHCLKGet
 .text.SystemMaxCoreClockGet
                0x08000d48        0x8 ./gecko_sdk_4.3.0/platform/Device/SiliconLabs/ZGM23/Source/system_zgm23.o
                0x08000d48                SystemMaxCoreClockGet
 .text.SystemHFXOClockGet
                0x08000d50        0xc ./gecko_sdk_4.3.0/platform/Device/SiliconLabs/ZGM23/Source/system_zgm23.o
                0x08000d50                SystemHFXOClockGet
 .text.SystemHFXOClockSet
                0x08000d5c       0x20 ./gecko_sdk_4.3.0/platform/Device/SiliconLabs/ZGM23/Source/system_zgm23.o
                0x08000d5c                SystemHFXOClockSet
 .text.SystemFSRCOClockGet
                0x08000d7c        0x8 ./gecko_sdk_4.3.0/platform/Device/SiliconLabs/ZGM23/Source/system_zgm23.o
                0x08000d7c                SystemFSRCOClockGet
 .text.SystemHFRCOEM23ClockGet
                0x08000d84       0x84 ./gecko_sdk_4.3.0/platform/Device/SiliconLabs/ZGM23/Source/system_zgm23.o
                0x08000d84                SystemHFRCOEM23ClockGet
 .text.SystemLFXOClockGet
                0x08000e08        0xc ./gecko_sdk_4.3.0/platform/Device/SiliconLabs/ZGM23/Source/system_zgm23.o
                0x08000e08                SystemLFXOClockGet
 .text._sbrk    0x08000e14       0x20 ./gecko_sdk_4.3.0/platform/common/toolchain/src/sl_memory.o
                0x08000e14                _sbrk
 .text.GPIO_PinInGet
                0x08000e34       0x54 ./gecko_sdk_4.3.0/platform/driver/button/src/sl_simple_button.o
 .text.sl_simple_button_init
                0x08000e88       0x6c ./gecko_sdk_4.3.0/platform/driver/button/src/sl_simple_button.o
                0x08000e88                sl_simple_button_init
 .text.sl_debug_swo_init
                0x08000ef4       0xc0 ./gecko_sdk_4.3.0/platform/driver/debug/src/sl_debug_swo.o
                0x08000ef4                sl_debug_swo_init
 .text.I2CSPM_Init
                0x08000fb4      0x180 ./gecko_sdk_4.3.0/platform/driver/i2cspm/src/sl_i2cspm.o
                0x08000fb4                I2CSPM_Init
 .text.I2CSPM_Transfer
                0x08001134       0x20 ./gecko_sdk_4.3.0/platform/driver/i2cspm/src/sl_i2cspm.o
                0x08001134                I2CSPM_Transfer
 .text.GPIO_PinOutClear
                0x08001154       0x50 ./gecko_sdk_4.3.0/platform/driver/leddrv/src/sl_simple_led.o
 .text.GPIO_PinOutSet
                0x080011a4       0x50 ./gecko_sdk_4.3.0/platform/driver/leddrv/src/sl_simple_led.o
 .text.sl_simple_led_toggle
                0x080011f4       0x4c ./gecko_sdk_4.3.0/platform/driver/leddrv/src/sl_simple_led.o
                0x080011f4                sl_simple_led_toggle
 .text.sl_simple_led_get_state
                0x08001240       0x5c ./gecko_sdk_4.3.0/platform/driver/leddrv/src/sl_simple_led.o
                0x08001240                sl_simple_led_get_state
 .text.GPIOINT_IRQDispatcher
                0x0800129c       0x38 ./gecko_sdk_4.3.0/platform/emdrv/gpiointerrupt/src/gpiointerrupt.o
 .text.GPIOINT_Init
                0x080012d4       0x30 ./gecko_sdk_4.3.0/platform/emdrv/gpiointerrupt/src/gpiointerrupt.o
                0x080012d4                GPIOINT_Init
 .text.GPIOINT_CallbackRegister
                0x08001304       0x24 ./gecko_sdk_4.3.0/platform/emdrv/gpiointerrupt/src/gpiointerrupt.o
                0x08001304                GPIOINT_CallbackRegister
 .text.GPIOINT_CallbackRegisterExt
                0x08001328       0x58 ./gecko_sdk_4.3.0/platform/emdrv/gpiointerrupt/src/gpiointerrupt.o
                0x08001328                GPIOINT_CallbackRegisterExt
 .text.GPIO_EVEN_IRQHandler
                0x08001380       0x24 ./gecko_sdk_4.3.0/platform/emdrv/gpiointerrupt/src/gpiointerrupt.o
                0x08001380                GPIO_EVEN_IRQHandler
 .text.GPIO_ODD_IRQHandler
                0x080013a4       0x24 ./gecko_sdk_4.3.0/platform/emdrv/gpiointerrupt/src/gpiointerrupt.o
                0x080013a4                GPIO_ODD_IRQHandler
 .text.EMU_VScaleGet
                0x080013c8       0x18 ./gecko_sdk_4.3.0/platform/emlib/src/em_cmu.o
 .text.em01GrpaClkGet
                0x080013e0       0x74 ./gecko_sdk_4.3.0/platform/emlib/src/em_cmu.o
 .text.em01GrpcClkGet
                0x08001454       0x70 ./gecko_sdk_4.3.0/platform/emlib/src/em_cmu.o
 .text.iadcClkGet
                0x080014c4       0x60 ./gecko_sdk_4.3.0/platform/emlib/src/em_cmu.o
 .text.lesenseHFClkGet
                0x08001524       0x48 ./gecko_sdk_4.3.0/platform/emlib/src/em_cmu.o
 .text.eusart0ClkGet
                0x0800156c       0x74 ./gecko_sdk_4.3.0/platform/emlib/src/em_cmu.o
 .text.em23GrpaClkGet
                0x080015e0       0x48 ./gecko_sdk_4.3.0/platform/emlib/src/em_cmu.o
 .text.vdac0ClkGet
                0x08001628       0x70 ./gecko_sdk_4.3.0/platform/emlib/src/em_cmu.o
 .text.pcnt0ClkGet
                0x08001698       0x4c ./gecko_sdk_4.3.0/platform/emlib/src/em_cmu.o
 .text.wdog0ClkGet
                0x080016e4       0x64 ./gecko_sdk_4.3.0/platform/emlib/src/em_cmu.o
 .text.wdog1ClkGet
                0x08001748       0x64 ./gecko_sdk_4.3.0/platform/emlib/src/em_cmu.o
 .text.sysrtcClkGet
                0x080017ac       0x48 ./gecko_sdk_4.3.0/platform/emlib/src/em_cmu.o
 .text.lcdClkGet
                0x080017f4       0x54 ./gecko_sdk_4.3.0/platform/emlib/src/em_cmu.o
 .text.em4GrpaClkGet
                0x08001848       0x48 ./gecko_sdk_4.3.0/platform/emlib/src/em_cmu.o
 .text.CMU_ClockDivGet
                0x08001890       0x84 ./gecko_sdk_4.3.0/platform/emlib/src/em_cmu.o
                0x08001890                CMU_ClockDivGet
 .text.flashWaitStateControl
                0x08001914       0x58 ./gecko_sdk_4.3.0/platform/emlib/src/em_cmu.o
 .text.CMU_ClockEnable
                0x0800196c       0x58 ./gecko_sdk_4.3.0/platform/emlib/src/em_cmu.o
                0x0800196c                CMU_ClockEnable
 .text.CMU_ClockFreqGet
                0x080019c4      0x270 ./gecko_sdk_4.3.0/platform/emlib/src/em_cmu.o
                0x080019c4                CMU_ClockFreqGet
 .text.rhclkPrescOptimize
                0x08001c34       0x20 ./gecko_sdk_4.3.0/platform/emlib/src/em_cmu.o
 .text.CMU_ClockSelectGet
                0x08001c54      0x268 ./gecko_sdk_4.3.0/platform/emlib/src/em_cmu.o
                0x08001c54                CMU_ClockSelectGet
 .text.sli_em_cmu_HFXOSetForceEnable
                0x08001ebc       0x1c ./gecko_sdk_4.3.0/platform/emlib/src/em_cmu.o
                0x08001ebc                sli_em_cmu_HFXOSetForceEnable
 .text.CMU_HFXOInit
                0x08001ed8      0x23c ./gecko_sdk_4.3.0/platform/emlib/src/em_cmu.o
                0x08001ed8                CMU_HFXOInit
 .text.CMU_HFXOCTuneDeltaGet
                0x08002114        0xc ./gecko_sdk_4.3.0/platform/emlib/src/em_cmu.o
                0x08002114                CMU_HFXOCTuneDeltaGet
 .text.CMU_HFXOPrecisionSet
                0x08002120        0xc ./gecko_sdk_4.3.0/platform/emlib/src/em_cmu.o
                0x08002120                CMU_HFXOPrecisionSet
 .text.CMU_ClockDivSet
                0x0800212c      0x104 ./gecko_sdk_4.3.0/platform/emlib/src/em_cmu.o
                0x0800212c                CMU_ClockDivSet
 .text.sli_em_cmu_SYSCLKInitPreClockSelect
                0x08002230       0x20 ./gecko_sdk_4.3.0/platform/emlib/src/em_cmu.o
                0x08002230                sli_em_cmu_SYSCLKInitPreClockSelect
 .text.pclkDivOptimize
                0x08002250       0x24 ./gecko_sdk_4.3.0/platform/emlib/src/em_cmu.o
 .text.CORE_NvicIRQDisabled
                0x08002274       0x34 ./gecko_sdk_4.3.0/platform/emlib/src/em_core.o
                0x08002274                CORE_NvicIRQDisabled
 .text.EMU_DCDCSync
                0x080022a8       0x10 ./gecko_sdk_4.3.0/platform/emlib/src/em_emu.o
 .text.EMU_EM4Init
                0x080022b8       0x14 ./gecko_sdk_4.3.0/platform/emlib/src/em_emu.o
                0x080022b8                EMU_EM4Init
 .text.EMU_VScaleEM01
                0x080022cc       0xb0 ./gecko_sdk_4.3.0/platform/emlib/src/em_emu.o
                0x080022cc                EMU_VScaleEM01
 .text.EMU_VScaleEM01ByClock
                0x0800237c       0x30 ./gecko_sdk_4.3.0/platform/emlib/src/em_emu.o
                0x0800237c                EMU_VScaleEM01ByClock
 .text.EMU_DCDCModeSet
                0x080023ac       0xbc ./gecko_sdk_4.3.0/platform/emlib/src/em_emu.o
                0x080023ac                EMU_DCDCModeSet
 .text.EMU_DCDCInit
                0x08002468       0x70 ./gecko_sdk_4.3.0/platform/emlib/src/em_emu.o
                0x08002468                EMU_DCDCInit
 .text.EMU_DCDCSetPFMXModePeakCurrent
                0x080024d8       0x70 ./gecko_sdk_4.3.0/platform/emlib/src/em_emu.o
                0x080024d8                EMU_DCDCSetPFMXModePeakCurrent
 .text.BUS_RegBitWrite
                0x08002548       0x30 ./gecko_sdk_4.3.0/platform/emlib/src/em_gpio.o
 .text.GPIO_PinOutSet
                0x08002578       0x50 ./gecko_sdk_4.3.0/platform/emlib/src/em_gpio.o
 .text.GPIO_PinOutClear
                0x080025c8       0x50 ./gecko_sdk_4.3.0/platform/emlib/src/em_gpio.o
 .text.GPIO_ExtIntConfig
                0x08002618       0xf8 ./gecko_sdk_4.3.0/platform/emlib/src/em_gpio.o
                0x08002618                GPIO_ExtIntConfig
 .text.GPIO_PinModeSet
                0x08002710       0xa8 ./gecko_sdk_4.3.0/platform/emlib/src/em_gpio.o
                0x08002710                GPIO_PinModeSet
 .text.I2C_BusFreqSet
                0x080027b8       0xe4 ./gecko_sdk_4.3.0/platform/emlib/src/em_i2c.o
                0x080027b8                I2C_BusFreqSet
 .text.I2C_Enable
                0x0800289c       0x38 ./gecko_sdk_4.3.0/platform/emlib/src/em_i2c.o
                0x0800289c                I2C_Enable
 .text.I2C_Init
                0x080028d4       0x64 ./gecko_sdk_4.3.0/platform/emlib/src/em_i2c.o
                0x080028d4                I2C_Init
 .text.I2C_Transfer
                0x08002938      0x240 ./gecko_sdk_4.3.0/platform/emlib/src/em_i2c.o
                0x08002938                I2C_Transfer
 .text.I2C_TransferInit
                0x08002b78       0xb8 ./gecko_sdk_4.3.0/platform/emlib/src/em_i2c.o
                0x08002b78                I2C_TransferInit
 .text.PRS_ConvertToSyncSource
                0x08002c30       0x54 ./gecko_sdk_4.3.0/platform/emlib/src/em_prs.o
                0x08002c30                PRS_ConvertToSyncSource
 .text.PRS_ConvertToSyncSignal
                0x08002c84       0x54 ./gecko_sdk_4.3.0/platform/emlib/src/em_prs.o
                0x08002c84                PRS_ConvertToSyncSignal
 .text.PRS_ConnectSignal
                0x08002cd8       0x64 ./gecko_sdk_4.3.0/platform/emlib/src/em_prs.o
                0x08002cd8                PRS_ConnectSignal
 .text.PRS_ConnectConsumer
                0x08002d3c       0x38 ./gecko_sdk_4.3.0/platform/emlib/src/em_prs.o
                0x08002d3c                PRS_ConnectConsumer
 .text.USART_BaudrateSyncSet
                0x08002d74       0x48 ./gecko_sdk_4.3.0/platform/emlib/src/em_usart.o
                0x08002d74                USART_BaudrateSyncSet
 .text.USART_Reset
                0x08002dbc       0x58 ./gecko_sdk_4.3.0/platform/emlib/src/em_usart.o
                0x08002dbc                USART_Reset
 .text.USART_InitSync
                0x08002e14       0xc0 ./gecko_sdk_4.3.0/platform/emlib/src/em_usart.o
                0x08002e14                USART_InitSync
 .text.setLineDirty
                0x08002ed4       0x20 ./gecko_sdk_4.3.0/platform/middleware/glib/dmd/display/dmd_memlcd.o
 .text.DMD_getDisplayGeometry
                0x08002ef4       0x1c ./gecko_sdk_4.3.0/platform/middleware/glib/dmd/display/dmd_memlcd.o
                0x08002ef4                DMD_getDisplayGeometry
 .text.DMD_setClippingArea
                0x08002f10       0x40 ./gecko_sdk_4.3.0/platform/middleware/glib/dmd/display/dmd_memlcd.o
                0x08002f10                DMD_setClippingArea
 .text.DMD_writeColor
                0x08002f50      0x124 ./gecko_sdk_4.3.0/platform/middleware/glib/dmd/display/dmd_memlcd.o
                0x08002f50                DMD_writeColor
 .text.DMD_init
                0x08003074       0x54 ./gecko_sdk_4.3.0/platform/middleware/glib/dmd/display/dmd_memlcd.o
                0x08003074                DMD_init
 .text.DMD_updateDisplay
                0x080030c8       0x80 ./gecko_sdk_4.3.0/platform/middleware/glib/dmd/display/dmd_memlcd.o
                0x080030c8                DMD_updateDisplay
 .text.GLIB_contextInit
                0x08003148       0x54 ./gecko_sdk_4.3.0/platform/middleware/glib/glib/glib.o
                0x08003148                GLIB_contextInit
 .text.sl_sysrtc_wait_ready
                0x0800319c       0x1c ./gecko_sdk_4.3.0/platform/peripheral/src/peripheral_sysrtc.o
 .text.sl_sysrtc_enable
                0x080031b8       0x18 ./gecko_sdk_4.3.0/platform/peripheral/src/peripheral_sysrtc.o
                0x080031b8                sl_sysrtc_enable
 .text.sl_sysrtc_disable
                0x080031d0       0x28 ./gecko_sdk_4.3.0/platform/peripheral/src/peripheral_sysrtc.o
                0x080031d0                sl_sysrtc_disable
 .text.sl_sysrtc_init
                0x080031f8       0x20 ./gecko_sdk_4.3.0/platform/peripheral/src/peripheral_sysrtc.o
                0x080031f8                sl_sysrtc_init
 .text.sl_sysrtc_init_group
                0x08003218       0x50 ./gecko_sdk_4.3.0/platform/peripheral/src/peripheral_sysrtc.o
                0x08003218                sl_sysrtc_init_group
 .text.sl_sysrtc_enable_group_interrupts
                0x08003268       0x1c ./gecko_sdk_4.3.0/platform/peripheral/src/peripheral_sysrtc.o
                0x08003268                sl_sysrtc_enable_group_interrupts
 .text.sl_sysrtc_disable_group_interrupts
                0x08003284       0x1c ./gecko_sdk_4.3.0/platform/peripheral/src/peripheral_sysrtc.o
                0x08003284                sl_sysrtc_disable_group_interrupts
 .text.sl_sysrtc_clear_group_interrupts
                0x080032a0       0x1c ./gecko_sdk_4.3.0/platform/peripheral/src/peripheral_sysrtc.o
                0x080032a0                sl_sysrtc_clear_group_interrupts
 .text.sl_sysrtc_get_group_interrupts
                0x080032bc       0x20 ./gecko_sdk_4.3.0/platform/peripheral/src/peripheral_sysrtc.o
                0x080032bc                sl_sysrtc_get_group_interrupts
 .text.sl_sysrtc_get_group_compare_channel_value
                0x080032dc       0x30 ./gecko_sdk_4.3.0/platform/peripheral/src/peripheral_sysrtc.o
                0x080032dc                sl_sysrtc_get_group_compare_channel_value
 .text.sl_sysrtc_set_group_compare_channel_value
                0x0800330c       0x2c ./gecko_sdk_4.3.0/platform/peripheral/src/peripheral_sysrtc.o
                0x0800330c                sl_sysrtc_set_group_compare_channel_value
 .text.sl_device_init_dcdc
                0x08003338       0x2c ./gecko_sdk_4.3.0/platform/service/device_init/src/sl_device_init_dcdc_s2.o
                0x08003338                sl_device_init_dcdc
 .text.sl_device_init_emu
                0x08003364       0x24 ./gecko_sdk_4.3.0/platform/service/device_init/src/sl_device_init_emu_s2.o
                0x08003364                sl_device_init_emu
 .text.sl_device_init_hfxo
                0x08003388       0x74 ./gecko_sdk_4.3.0/platform/service/device_init/src/sl_device_init_hfxo_s2.o
                0x08003388                sl_device_init_hfxo
 .text.sl_device_init_nvic
                0x080033fc       0x3c ./gecko_sdk_4.3.0/platform/service/device_init/src/sl_device_init_nvic.o
                0x080033fc                sl_device_init_nvic
 .text.delta_list_insert_timer
                0x08003438       0x44 ./gecko_sdk_4.3.0/platform/service/sleeptimer/src/sl_sleeptimer.o
 .text.update_delta_list
                0x0800347c       0x38 ./gecko_sdk_4.3.0/platform/service/sleeptimer/src/sl_sleeptimer.o
 .text.set_comparator_for_next_timer
                0x080034b4       0x5c ./gecko_sdk_4.3.0/platform/service/sleeptimer/src/sl_sleeptimer.o
 .text.create_timer
                0x08003510       0x8c ./gecko_sdk_4.3.0/platform/service/sleeptimer/src/sl_sleeptimer.o
 .text.delta_list_remove_timer
                0x0800359c       0x38 ./gecko_sdk_4.3.0/platform/service/sleeptimer/src/sl_sleeptimer.o
 .text.sl_sleeptimer_init
                0x080035d4       0x74 ./gecko_sdk_4.3.0/platform/service/sleeptimer/src/sl_sleeptimer.o
                0x080035d4                sl_sleeptimer_init
 .text.sl_sleeptimer_stop_timer
                0x08003648       0x50 ./gecko_sdk_4.3.0/platform/service/sleeptimer/src/sl_sleeptimer.o
                0x08003648                sl_sleeptimer_stop_timer
 .text.sl_sleeptimer_is_timer_running
                0x08003698       0x38 ./gecko_sdk_4.3.0/platform/service/sleeptimer/src/sl_sleeptimer.o
                0x08003698                sl_sleeptimer_is_timer_running
 .text.sl_sleeptimer_get_timer_frequency
                0x080036d0        0xc ./gecko_sdk_4.3.0/platform/service/sleeptimer/src/sl_sleeptimer.o
                0x080036d0                sl_sleeptimer_get_timer_frequency
 .text.sl_sleeptimer_ms_to_tick
                0x080036dc       0x24 ./gecko_sdk_4.3.0/platform/service/sleeptimer/src/sl_sleeptimer.o
                0x080036dc                sl_sleeptimer_ms_to_tick
 .text.sl_sleeptimer_delay_millisecond
                0x08003700       0x38 ./gecko_sdk_4.3.0/platform/service/sleeptimer/src/sl_sleeptimer.o
                0x08003700                sl_sleeptimer_delay_millisecond
 .text.process_timer_irq
                0x08003738      0x158 ./gecko_sdk_4.3.0/platform/service/sleeptimer/src/sl_sleeptimer.o
                0x08003738                process_timer_irq
 .text.sl_sysrtc_wait_sync
                0x08003890       0x14 ./gecko_sdk_4.3.0/platform/service/sleeptimer/src/sl_sleeptimer_hal_sysrtc.o
 .text.sleeptimer_hal_init_timer
                0x080038a4       0x90 ./gecko_sdk_4.3.0/platform/service/sleeptimer/src/sl_sleeptimer_hal_sysrtc.o
                0x080038a4                sleeptimer_hal_init_timer
 .text.sleeptimer_hal_get_counter
                0x08003934       0x10 ./gecko_sdk_4.3.0/platform/service/sleeptimer/src/sl_sleeptimer_hal_sysrtc.o
                0x08003934                sleeptimer_hal_get_counter
 .text.sleeptimer_hal_set_compare_prs_hfxo_startup
                0x08003944       0x50 ./gecko_sdk_4.3.0/platform/service/sleeptimer/src/sl_sleeptimer_hal_sysrtc.o
                0x08003944                sleeptimer_hal_set_compare_prs_hfxo_startup
 .text.sleeptimer_hal_set_compare
                0x08003994       0x70 ./gecko_sdk_4.3.0/platform/service/sleeptimer/src/sl_sleeptimer_hal_sysrtc.o
                0x08003994                sleeptimer_hal_set_compare
 .text.sleeptimer_hal_disable_int
                0x08003a04       0x2c ./gecko_sdk_4.3.0/platform/service/sleeptimer/src/sl_sleeptimer_hal_sysrtc.o
                0x08003a04                sleeptimer_hal_disable_int
 .text.sleeptimer_hal_set_int
                0x08003a30       0x10 ./gecko_sdk_4.3.0/platform/service/sleeptimer/src/sl_sleeptimer_hal_sysrtc.o
                0x08003a30                sleeptimer_hal_set_int
 .text.sl_udelay_wait
                0x08003a40       0x58 ./gecko_sdk_4.3.0/platform/service/udelay/src/sl_udelay.o
                0x08003a40                sl_udelay_wait
 .text.osKernelInitialize
                0x08003a98       0x34 ./gecko_sdk_4.3.0/util/third_party/freertos/cmsis/Source/cmsis_os2.o
                0x08003a98                osKernelInitialize
 .text.osKernelStart
                0x08003acc       0x48 ./gecko_sdk_4.3.0/util/third_party/freertos/cmsis/Source/cmsis_os2.o
                0x08003acc                osKernelStart
 .text.vApplicationStackOverflowHook
                0x08003b14       0x10 ./gecko_sdk_4.3.0/util/third_party/freertos/cmsis/Source/cmsis_os2.o
                0x08003b14                vApplicationStackOverflowHook
 .text.vApplicationGetIdleTaskMemory
                0x08003b24       0x18 ./gecko_sdk_4.3.0/util/third_party/freertos/cmsis/Source/cmsis_os2.o
                0x08003b24                vApplicationGetIdleTaskMemory
 .text.vApplicationGetTimerTaskMemory
                0x08003b3c       0x18 ./gecko_sdk_4.3.0/util/third_party/freertos/cmsis/Source/cmsis_os2.o
                0x08003b3c                vApplicationGetTimerTaskMemory
 .text.xQueueGenericReset
                0x08003b54       0x6c ./gecko_sdk_4.3.0/util/third_party/freertos/kernel/queue.o
                0x08003b54                xQueueGenericReset
 .text.xQueueGenericCreateStatic
                0x08003bc0       0x7c ./gecko_sdk_4.3.0/util/third_party/freertos/kernel/queue.o
                0x08003bc0                xQueueGenericCreateStatic
 .text.xQueueGenericCreate
                0x08003c3c       0x74 ./gecko_sdk_4.3.0/util/third_party/freertos/kernel/queue.o
                0x08003c3c                xQueueGenericCreate
 .text.xQueueGenericSend
                0x08003cb0      0x12c ./gecko_sdk_4.3.0/util/third_party/freertos/kernel/queue.o
                0x08003cb0                xQueueGenericSend
 .text.xQueueGenericSendFromISR
                0x08003ddc       0xb4 ./gecko_sdk_4.3.0/util/third_party/freertos/kernel/queue.o
                0x08003ddc                xQueueGenericSendFromISR
 .text.xQueueReceive
                0x08003e90      0x104 ./gecko_sdk_4.3.0/util/third_party/freertos/kernel/queue.o
                0x08003e90                xQueueReceive
 .text.vQueueAddToRegistry
                0x08003f94       0x24 ./gecko_sdk_4.3.0/util/third_party/freertos/kernel/queue.o
                0x08003f94                vQueueAddToRegistry
 .text.prvAddNewTaskToReadyList
                0x08003fb8       0xf4 ./gecko_sdk_4.3.0/util/third_party/freertos/kernel/tasks.o
 .text.prvAddCurrentTaskToDelayedList
                0x080040ac       0x70 ./gecko_sdk_4.3.0/util/third_party/freertos/kernel/tasks.o
 .text.prvResetNextTaskUnblockTime
                0x0800411c       0x24 ./gecko_sdk_4.3.0/util/third_party/freertos/kernel/tasks.o
 .text.prvTaskIsTaskSuspended
                0x08004140       0x38 ./gecko_sdk_4.3.0/util/third_party/freertos/kernel/tasks.o
 .text.prvDeleteTCB
                0x08004178       0x38 ./gecko_sdk_4.3.0/util/third_party/freertos/kernel/tasks.o
 .text.prvIdleTask
                0x080041b0       0x50 ./gecko_sdk_4.3.0/util/third_party/freertos/kernel/tasks.o
 .text.xTaskCreateStatic
                0x08004200       0x84 ./gecko_sdk_4.3.0/util/third_party/freertos/kernel/tasks.o
                0x08004200                xTaskCreateStatic
 .text.xTaskResumeFromISR
                0x08004284       0x98 ./gecko_sdk_4.3.0/util/third_party/freertos/kernel/tasks.o
                0x08004284                xTaskResumeFromISR
 .text.vTaskStartScheduler
                0x0800431c       0x84 ./gecko_sdk_4.3.0/util/third_party/freertos/kernel/tasks.o
                0x0800431c                vTaskStartScheduler
 .text.vTaskSuspendAll
                0x080043a0       0x10 ./gecko_sdk_4.3.0/util/third_party/freertos/kernel/tasks.o
                0x080043a0                vTaskSuspendAll
 .text.xTaskGetTickCount
                0x080043b0        0xc ./gecko_sdk_4.3.0/util/third_party/freertos/kernel/tasks.o
                0x080043b0                xTaskGetTickCount
 .text.xTaskIncrementTick
                0x080043bc      0x128 ./gecko_sdk_4.3.0/util/third_party/freertos/kernel/tasks.o
                0x080043bc                xTaskIncrementTick
 .text.xTaskResumeAll
                0x080044e4       0xd4 ./gecko_sdk_4.3.0/util/third_party/freertos/kernel/tasks.o
                0x080044e4                xTaskResumeAll
 .text.vTaskDelay
                0x080045b8       0x3c ./gecko_sdk_4.3.0/util/third_party/freertos/kernel/tasks.o
                0x080045b8                vTaskDelay
 .text.vTaskSwitchContext
                0x080045f4       0xa8 ./gecko_sdk_4.3.0/util/third_party/freertos/kernel/tasks.o
                0x080045f4                vTaskSwitchContext
 .text.vTaskSuspend
                0x0800469c       0xa0 ./gecko_sdk_4.3.0/util/third_party/freertos/kernel/tasks.o
                0x0800469c                vTaskSuspend
 .text.vTaskPlaceOnEventList
                0x0800473c       0x34 ./gecko_sdk_4.3.0/util/third_party/freertos/kernel/tasks.o
                0x0800473c                vTaskPlaceOnEventList
 .text.vTaskPlaceOnEventListRestricted
                0x08004770       0x40 ./gecko_sdk_4.3.0/util/third_party/freertos/kernel/tasks.o
                0x08004770                vTaskPlaceOnEventListRestricted
 .text.xTaskRemoveFromEventList
                0x080047b0       0x84 ./gecko_sdk_4.3.0/util/third_party/freertos/kernel/tasks.o
                0x080047b0                xTaskRemoveFromEventList
 .text.vTaskInternalSetTimeOutState
                0x08004834       0x18 ./gecko_sdk_4.3.0/util/third_party/freertos/kernel/tasks.o
                0x08004834                vTaskInternalSetTimeOutState
 .text.xTaskCheckForTimeOut
                0x0800484c       0x6c ./gecko_sdk_4.3.0/util/third_party/freertos/kernel/tasks.o
                0x0800484c                xTaskCheckForTimeOut
 .text.vTaskMissedYield
                0x080048b8        0xc ./gecko_sdk_4.3.0/util/third_party/freertos/kernel/tasks.o
                0x080048b8                vTaskMissedYield
 .text.xTaskGetSchedulerState
                0x080048c4       0x20 ./gecko_sdk_4.3.0/util/third_party/freertos/kernel/tasks.o
                0x080048c4                xTaskGetSchedulerState
 .text.xTaskPriorityDisinherit
                0x080048e4       0x80 ./gecko_sdk_4.3.0/util/third_party/freertos/kernel/tasks.o
                0x080048e4                xTaskPriorityDisinherit
 .text.prvCheckForValidListAndQueue
                0x08004964       0x68 ./gecko_sdk_4.3.0/util/third_party/freertos/kernel/timers.o
 .text.prvInsertTimerInActiveList
                0x080049cc       0x3c ./gecko_sdk_4.3.0/util/third_party/freertos/kernel/timers.o
 .text.xTimerCreateTimerTask
                0x08004a08       0x64 ./gecko_sdk_4.3.0/util/third_party/freertos/kernel/timers.o
                0x08004a08                xTimerCreateTimerTask
 .text.xTimerGenericCommand
                0x08004a6c       0x58 ./gecko_sdk_4.3.0/util/third_party/freertos/kernel/timers.o
                0x08004a6c                xTimerGenericCommand
 .text.prvSampleTimeNow
                0x08004ac4       0xb0 ./gecko_sdk_4.3.0/util/third_party/freertos/kernel/timers.o
 .text.prvTimerTask
                0x08004b74      0x1bc ./gecko_sdk_4.3.0/util/third_party/freertos/kernel/timers.o
 .text.prvTaskExitError
                0x08004d30       0x30 ./gecko_sdk_4.3.0/util/third_party/freertos/kernel/portable/GCC/ARM_CM33_NTZ/non_secure/port.o
 .text.vPortSetupTimerInterrupt
                0x08004d60       0x24 ./gecko_sdk_4.3.0/util/third_party/freertos/kernel/portable/GCC/ARM_CM33_NTZ/non_secure/port.o
                0x08004d60                vPortSetupTimerInterrupt
 .text.vPortEnterCritical
                0x08004d84       0x1c ./gecko_sdk_4.3.0/util/third_party/freertos/kernel/portable/GCC/ARM_CM33_NTZ/non_secure/port.o
                0x08004d84                vPortEnterCritical
 .text.vPortExitCritical
                0x08004da0       0x30 ./gecko_sdk_4.3.0/util/third_party/freertos/kernel/portable/GCC/ARM_CM33_NTZ/non_secure/port.o
                0x08004da0                vPortExitCritical
 .text.vPortSVCHandler_C
                0x08004dd0       0x38 ./gecko_sdk_4.3.0/util/third_party/freertos/kernel/portable/GCC/ARM_CM33_NTZ/non_secure/port.o
                0x08004dd0                vPortSVCHandler_C
 .text.pxPortInitialiseStack
                0x08004e08       0x70 ./gecko_sdk_4.3.0/util/third_party/freertos/kernel/portable/GCC/ARM_CM33_NTZ/non_secure/port.o
                0x08004e08                pxPortInitialiseStack
 .text.xPortStartScheduler
                0x08004e78       0x3c ./gecko_sdk_4.3.0/util/third_party/freertos/kernel/portable/GCC/ARM_CM33_NTZ/non_secure/port.o
                0x08004e78                xPortStartScheduler
 .text.prvInsertBlockIntoFreeList
                0x08004eb4       0x48 ./gecko_sdk_4.3.0/util/third_party/freertos/kernel/portable/MemMang/heap_4.o
 .text.pvPortMalloc
                0x08004efc      0x138 ./gecko_sdk_4.3.0/util/third_party/freertos/kernel/portable/MemMang/heap_4.o
                0x08004efc                pvPortMalloc
 .text.vPortFree
                0x08005034       0x80 ./gecko_sdk_4.3.0/util/third_party/freertos/kernel/portable/MemMang/heap_4.o
                0x08005034                vPortFree
 .text          0x080050b4       0x30 c:/siliconlabs/simplicitystudio/v5/developer/toolchains/gnu_arm/10.3_2021.10/bin/../lib/gcc/arm-none-eabi/10.3.1/thumb/v8-m.main+fp/hard\libgcc.a(_aeabi_uldivmod.o)
                0x080050b4                __aeabi_uldivmod
 .text          0x080050e4      0x2ec c:/siliconlabs/simplicitystudio/v5/developer/toolchains/gnu_arm/10.3_2021.10/bin/../lib/gcc/arm-none-eabi/10.3.1/thumb/v8-m.main+fp/hard\libgcc.a(_udivmoddi4.o)
                0x080050e4                __udivmoddi4
 .text          0x080053d0        0x4 c:/siliconlabs/simplicitystudio/v5/developer/toolchains/gnu_arm/10.3_2021.10/bin/../lib/gcc/arm-none-eabi/10.3.1/thumb/v8-m.main+fp/hard\libgcc.a(_dvmd_tls.o)
                0x080053d0                __aeabi_idiv0
                0x080053d0                __aeabi_ldiv0
 .text.exit     0x080053d4       0x28 c:/siliconlabs/simplicitystudio/v5/developer/toolchains/gnu_arm/10.3_2021.10/bin/../lib/gcc/arm-none-eabi/10.3.1/../../../../arm-none-eabi/lib/thumb/v8-m.main+fp/hard\libc_nano.a(lib_a-exit.o)
                0x080053d4                exit
 .text.__libc_init_array
                0x080053fc       0x48 c:/siliconlabs/simplicitystudio/v5/developer/toolchains/gnu_arm/10.3_2021.10/bin/../lib/gcc/arm-none-eabi/10.3.1/../../../../arm-none-eabi/lib/thumb/v8-m.main+fp/hard\libc_nano.a(lib_a-init.o)
                0x080053fc                __libc_init_array
 .text.sprintf  0x08005444       0x40 c:/siliconlabs/simplicitystudio/v5/developer/toolchains/gnu_arm/10.3_2021.10/bin/../lib/gcc/arm-none-eabi/10.3.1/../../../../arm-none-eabi/lib/thumb/v8-m.main+fp/hard\libc_nano.a(lib_a-sprintf.o)
                0x08005444                siprintf
                0x08005444                sprintf
 .text._svfprintf_r
                0x08005484      0x200 c:/siliconlabs/simplicitystudio/v5/developer/toolchains/gnu_arm/10.3_2021.10/bin/../lib/gcc/arm-none-eabi/10.3.1/../../../../arm-none-eabi/lib/thumb/v8-m.main+fp/hard\libc_nano.a(lib_a-nano-svfprintf.o)
                0x08005484                _svfiprintf_r
                0x08005484                _svfprintf_r
 .text._printf_i
                0x08005684      0x24c c:/siliconlabs/simplicitystudio/v5/developer/toolchains/gnu_arm/10.3_2021.10/bin/../lib/gcc/arm-none-eabi/10.3.1/../../../../arm-none-eabi/lib/thumb/v8-m.main+fp/hard\libc_nano.a(lib_a-nano-vfprintf_i.o)
                0x08005684                _printf_i
 .text._free_r  0x080058d0       0x98 c:/siliconlabs/simplicitystudio/v5/developer/toolchains/gnu_arm/10.3_2021.10/bin/../lib/gcc/arm-none-eabi/10.3.1/../../../../arm-none-eabi/lib/thumb/v8-m.main+fp/hard\libc_nano.a(lib_a-nano-freer.o)
                0x080058d0                _free_r
 .text.sbrk_aligned
                0x08005968       0x40 c:/siliconlabs/simplicitystudio/v5/developer/toolchains/gnu_arm/10.3_2021.10/bin/../lib/gcc/arm-none-eabi/10.3.1/../../../../arm-none-eabi/lib/thumb/v8-m.main+fp/hard\libc_nano.a(lib_a-nano-mallocr.o)
 .text._malloc_r
                0x080059a8       0xe8 c:/siliconlabs/simplicitystudio/v5/developer/toolchains/gnu_arm/10.3_2021.10/bin/../lib/gcc/arm-none-eabi/10.3.1/../../../../arm-none-eabi/lib/thumb/v8-m.main+fp/hard\libc_nano.a(lib_a-nano-mallocr.o)
                0x080059a8                _malloc_r
 .text._sbrk_r  0x08005a90       0x20 c:/siliconlabs/simplicitystudio/v5/developer/toolchains/gnu_arm/10.3_2021.10/bin/../lib/gcc/arm-none-eabi/10.3.1/../../../../arm-none-eabi/lib/thumb/v8-m.main+fp/hard\libc_nano.a(lib_a-sbrkr.o)
                0x08005a90                _sbrk_r
 .text.__malloc_lock
                0x08005ab0        0xc c:/siliconlabs/simplicitystudio/v5/developer/toolchains/gnu_arm/10.3_2021.10/bin/../lib/gcc/arm-none-eabi/10.3.1/../../../../arm-none-eabi/lib/thumb/v8-m.main+fp/hard\libc_nano.a(lib_a-mlock.o)
                0x08005ab0                __malloc_lock
 .text.__malloc_unlock
                0x08005abc        0xc c:/siliconlabs/simplicitystudio/v5/developer/toolchains/gnu_arm/10.3_2021.10/bin/../lib/gcc/arm-none-eabi/10.3.1/../../../../arm-none-eabi/lib/thumb/v8-m.main+fp/hard\libc_nano.a(lib_a-mlock.o)
                0x08005abc                __malloc_unlock
 .text._exit    0x08005ac8        0x4 c:/siliconlabs/simplicitystudio/v5/developer/toolchains/gnu_arm/10.3_2021.10/bin/../lib/gcc/arm-none-eabi/10.3.1/../../../../arm-none-eabi/lib/thumb/v8-m.main+fp/hard\libnosys.a(_exit.o)
                0x08005ac8                _exit
 .text.app_init
                0x08005acc        0xe ./app.o
                0x08005acc                app_init
 .text.startup.main
                0x08005ada       0x12 ./main.o
                0x08005ada                main
 .text.sl_board_default_init
                0x08005aec        0x4 ./autogen/sl_board_default_init.o
                0x08005aec                sl_board_default_init
 .text.sl_kernel_start
                0x08005af0        0x4 ./autogen/sl_event_handler.o
                0x08005af0                sl_kernel_start
 .text.sl_driver_init
                0x08005af4       0x1e ./autogen/sl_event_handler.o
                0x08005af4                sl_driver_init
 .text.sl_service_init
                0x08005b12        0xe ./autogen/sl_event_handler.o
                0x08005b12                sl_service_init
 .text.sl_stack_init
                0x08005b20        0x2 ./autogen/sl_event_handler.o
                0x08005b20                sl_stack_init
 .text.sl_internal_app_init
                0x08005b22        0x2 ./autogen/sl_event_handler.o
                0x08005b22                sl_internal_app_init
 .text.sl_board_configure_vcom
                0x08005b24        0x4 ./gecko_sdk_4.3.0/hardware/board/src/sl_board_control_gpio.o
                0x08005b24                sl_board_configure_vcom
 .text.sl_board_disable_vcom
                0x08005b28       0x12 ./gecko_sdk_4.3.0/hardware/board/src/sl_board_control_gpio.o
                0x08005b28                sl_board_disable_vcom
 .text.sl_board_enable_display
                0x08005b3a       0x12 ./gecko_sdk_4.3.0/hardware/board/src/sl_board_control_gpio.o
                0x08005b3a                sl_board_enable_display
 .text.sl_board_init
                0x08005b4c       0x1c ./gecko_sdk_4.3.0/hardware/board/src/sl_board_init.o
                0x08005b4c                sl_board_init
 .text.sl_board_preinit
                0x08005b68        0x8 ./gecko_sdk_4.3.0/hardware/board/src/sl_board_init.o
                0x08005b68                sl_board_preinit
 .text.sl_cos_send_config
                0x08005b70       0x12 ./gecko_sdk_4.3.0/hardware/driver/configuration_over_swo/src/sl_cos.o
                0x08005b70                sl_cos_send_config
 .text.sli_memlcd_spi_tx
                0x08005b82       0x22 ./gecko_sdk_4.3.0/hardware/driver/memlcd/src/memlcd_usart/sl_memlcd_spi.o
                0x08005b82                sli_memlcd_spi_tx
 .text.sli_memlcd_spi_wait
                0x08005ba4        0xa ./gecko_sdk_4.3.0/hardware/driver/memlcd/src/memlcd_usart/sl_memlcd_spi.o
                0x08005ba4                sli_memlcd_spi_wait
 .text.sli_memlcd_spi_rx_flush
                0x08005bae       0x14 ./gecko_sdk_4.3.0/hardware/driver/memlcd/src/memlcd_usart/sl_memlcd_spi.o
                0x08005bae                sli_memlcd_spi_rx_flush
 .text.sl_si70xx_send_command
                0x08005bc2       0x50 ./gecko_sdk_4.3.0/hardware/driver/si70xx/src/sl_si70xx.o
 .text.sl_si70xx_measure_rh_and_temp
                0x08005c12       0x4a ./gecko_sdk_4.3.0/hardware/driver/si70xx/src/sl_si70xx.o
                0x08005c12                sl_si70xx_measure_rh_and_temp
 .text.sl_si70xx_present
                0x08005c5c       0x4c ./gecko_sdk_4.3.0/hardware/driver/si70xx/src/sl_si70xx.o
                0x08005c5c                sl_si70xx_present
 .text.sl_si70xx_init
                0x08005ca8       0x2c ./gecko_sdk_4.3.0/hardware/driver/si70xx/src/sl_si70xx.o
                0x08005ca8                sl_si70xx_init
 .text.Default_Handler
                0x08005cd4        0x2 ./gecko_sdk_4.3.0/platform/Device/SiliconLabs/ZGM23/Source/startup_zgm23.o
                0x08005cd4                ULFRCO_IRQHandler
                0x08005cd4                SW2_IRQHandler
                0x08005cd4                TIMER2_IRQHandler
                0x08005cd4                DebugMon_Handler
                0x08005cd4                USART0_TX_IRQHandler
                0x08005cd4                IADC_IRQHandler
                0x08005cd4                EUSART0_TX_IRQHandler
                0x08005cd4                I2C0_IRQHandler
                0x08005cd4                LFXO_IRQHandler
                0x08005cd4                VDAC_IRQHandler
                0x08005cd4                HardFault_Handler
                0x08005cd4                SMU_SECURE_IRQHandler
                0x08005cd4                SYSRTC_SEQ_IRQHandler
                0x08005cd4                EMUEFP_IRQHandler
                0x08005cd4                EUSART2_TX_IRQHandler
                0x08005cd4                NMI_Handler
                0x08005cd4                SYNTH_IRQHandler
                0x08005cd4                HOSTMAILBOX_IRQHandler
                0x08005cd4                HFXO0_IRQHandler
                0x08005cd4                I2C1_IRQHandler
                0x08005cd4                WDOG0_IRQHandler
                0x08005cd4                TIMER3_IRQHandler
                0x08005cd4                SYSCFG_IRQHandler
                0x08005cd4                RFECA1_IRQHandler
                0x08005cd4                EMUDG_IRQHandler
                0x08005cd4                MSC_IRQHandler
                0x08005cd4                DPLL0_IRQHandler
                0x08005cd4                UsageFault_Handler
                0x08005cd4                WDOG1_IRQHandler
                0x08005cd4                M33CTI1_IRQHandler
                0x08005cd4                TIMER4_IRQHandler
                0x08005cd4                LDMA_IRQHandler
                0x08005cd4                SEMBTX_IRQHandler
                0x08005cd4                SW0_IRQHandler
                0x08005cd4                TIMER0_IRQHandler
                0x08005cd4                LCD_IRQHandler
                0x08005cd4                LETIMER0_IRQHandler
                0x08005cd4                EUSART1_RX_IRQHandler
                0x08005cd4                TIMER1_IRQHandler
                0x08005cd4                HFRCO0_IRQHandler
                0x08005cd4                SecureFault_Handler
                0x08005cd4                BUFC_IRQHandler
                0x08005cd4                DCDC_IRQHandler
                0x08005cd4                MODEM_IRQHandler
                0x08005cd4                Default_Handler
                0x08005cd4                RAC_SEQ_IRQHandler
                0x08005cd4                FRC_PRI_IRQHandler
                0x08005cd4                EMU_IRQHandler
                0x08005cd4                SW3_IRQHandler
                0x08005cd4                KERNEL0_IRQHandler
                0x08005cd4                FRC_IRQHandler
                0x08005cd4                PCNT0_IRQHandler
                0x08005cd4                KERNEL1_IRQHandler
                0x08005cd4                AGC_IRQHandler
                0x08005cd4                EUSART1_TX_IRQHandler
                0x08005cd4                KEYSCAN_IRQHandler
                0x08005cd4                sl_app_properties
                0x08005cd4                HFRCOEM23_IRQHandler
                0x08005cd4                BURTC_IRQHandler
                0x08005cd4                SEMBRX_IRQHandler
                0x08005cd4                RFECA0_IRQHandler
                0x08005cd4                LFRCO_IRQHandler
                0x08005cd4                ACMP0_IRQHandler
                0x08005cd4                USART0_RX_IRQHandler
                0x08005cd4                MemManage_Handler
                0x08005cd4                EUSART2_RX_IRQHandler
                0x08005cd4                SMU_S_PRIVILEGED_IRQHandler
                0x08005cd4                SW1_IRQHandler
                0x08005cd4                CMU_IRQHandler
                0x08005cd4                EUSART0_RX_IRQHandler
                0x08005cd4                RAC_RSM_IRQHandler
                0x08005cd4                LESENSE_IRQHandler
                0x08005cd4                AES_IRQHandler
                0x08005cd4                M33CTI0_IRQHandler
                0x08005cd4                ICACHE0_IRQHandler
                0x08005cd4                SMU_NS_PRIVILEGED_IRQHandler
                0x08005cd4                FPUEXH_IRQHandler
                0x08005cd4                PROTIMER_IRQHandler
                0x08005cd4                ACMP1_IRQHandler
                0x08005cd4                BusFault_Handler
                0x08005cd4                MPAHBRAM_IRQHandler
 .text.SystemCLKIN0Get
                0x08005cd6        0x4 ./gecko_sdk_4.3.0/platform/Device/SiliconLabs/ZGM23/Source/system_zgm23.o
                0x08005cd6                SystemCLKIN0Get
 .text.SystemLFRCOClockGet
                0x08005cda        0x6 ./gecko_sdk_4.3.0/platform/Device/SiliconLabs/ZGM23/Source/system_zgm23.o
                0x08005cda                SystemLFRCOClockGet
 .text.SystemULFRCOClockGet
                0x08005ce0        0x6 ./gecko_sdk_4.3.0/platform/Device/SiliconLabs/ZGM23/Source/system_zgm23.o
                0x08005ce0                SystemULFRCOClockGet
 .text.assertEFM
                0x08005ce6        0x2 ./gecko_sdk_4.3.0/platform/common/src/sl_assert.o
                0x08005ce6                assertEFM
 .text.sl_button_init
                0x08005ce8        0xa ./gecko_sdk_4.3.0/platform/driver/button/src/sl_button.o
                0x08005ce8                sl_button_init
 .text.sl_button_get_state
                0x08005cf2        0xa ./gecko_sdk_4.3.0/platform/driver/button/src/sl_button.o
                0x08005cf2                sl_button_get_state
 .text.sli_simple_button_on_change
                0x08005cfc       0x28 ./gecko_sdk_4.3.0/platform/driver/button/src/sl_simple_button.o
 .text.sl_simple_button_get_state
                0x08005d24        0x6 ./gecko_sdk_4.3.0/platform/driver/button/src/sl_simple_button.o
                0x08005d24                sl_simple_button_get_state
 .text.sl_simple_button_poll_step
                0x08005d2a       0x52 ./gecko_sdk_4.3.0/platform/driver/button/src/sl_simple_button.o
                0x08005d2a                sl_simple_button_poll_step
 .text.sl_simple_button_enable
                0x08005d7c       0x12 ./gecko_sdk_4.3.0/platform/driver/button/src/sl_simple_button.o
                0x08005d7c                sl_simple_button_enable
 .text.sl_simple_button_disable
                0x08005d8e       0x30 ./gecko_sdk_4.3.0/platform/driver/button/src/sl_simple_button.o
                0x08005d8e                sl_simple_button_disable
 .text.sl_debug_swo_enable_itm
                0x08005dbe       0x18 ./gecko_sdk_4.3.0/platform/driver/debug/src/sl_debug_swo.o
                0x08005dbe                sl_debug_swo_enable_itm
 .text.sl_debug_swo_disable_itm
                0x08005dd6       0x1a ./gecko_sdk_4.3.0/platform/driver/debug/src/sl_debug_swo.o
                0x08005dd6                sl_debug_swo_disable_itm
 .text.sl_led_init
                0x08005df0        0x6 ./gecko_sdk_4.3.0/platform/driver/leddrv/src/sl_led.o
                0x08005df0                sl_led_init
 .text.sl_led_turn_off
                0x08005df6        0x6 ./gecko_sdk_4.3.0/platform/driver/leddrv/src/sl_led.o
                0x08005df6                sl_led_turn_off
 .text.sl_led_toggle
                0x08005dfc        0x6 ./gecko_sdk_4.3.0/platform/driver/leddrv/src/sl_led.o
                0x08005dfc                sl_led_toggle
 .text.sl_simple_led_init
                0x08005e02       0x22 ./gecko_sdk_4.3.0/platform/driver/leddrv/src/sl_simple_led.o
                0x08005e02                sl_simple_led_init
 .text.sl_simple_led_turn_on
                0x08005e24       0x12 ./gecko_sdk_4.3.0/platform/driver/leddrv/src/sl_simple_led.o
                0x08005e24                sl_simple_led_turn_on
 .text.sl_simple_led_turn_off
                0x08005e36       0x12 ./gecko_sdk_4.3.0/platform/driver/leddrv/src/sl_simple_led.o
                0x08005e36                sl_simple_led_turn_off
 .text.BUS_RegMaskedWrite
                0x08005e48       0x22 ./gecko_sdk_4.3.0/platform/emlib/src/em_cmu.o
 .text.waitStateMax
                0x08005e6a       0x10 ./gecko_sdk_4.3.0/platform/emlib/src/em_cmu.o
 .text.CMU_UpdateWaitStates
                0x08005e7a        0xc ./gecko_sdk_4.3.0/platform/emlib/src/em_cmu.o
                0x08005e7a                CMU_UpdateWaitStates
 .text.pclkDivMax
                0x08005e86        0xa ./gecko_sdk_4.3.0/platform/emlib/src/em_cmu.o
 .text.sli_em_cmu_SYSCLKInitPostClockSelect
                0x08005e90       0x2a ./gecko_sdk_4.3.0/platform/emlib/src/em_cmu.o
                0x08005e90                sli_em_cmu_SYSCLKInitPostClockSelect
 .text.CORE_EnterCritical
                0x08005eba        0x8 ./gecko_sdk_4.3.0/platform/emlib/src/em_core.o
                0x08005eba                CORE_EnterCritical
 .text.CORE_ExitCritical
                0x08005ec2        0x6 ./gecko_sdk_4.3.0/platform/emlib/src/em_core.o
                0x08005ec2                CORE_ExitCritical
 .text.CORE_EnterAtomic
                0x08005ec8        0xc ./gecko_sdk_4.3.0/platform/emlib/src/em_core.o
                0x08005ec8                CORE_EnterAtomic
 .text.CORE_ExitAtomic
                0x08005ed4        0x6 ./gecko_sdk_4.3.0/platform/emlib/src/em_core.o
                0x08005ed4                CORE_ExitAtomic
 .text.EMU_EFPEM01VScale
                0x08005eda        0x2 ./gecko_sdk_4.3.0/platform/emlib/src/em_emu.o
                0x08005eda                EMU_EFPEM01VScale
 .text.EMU_DCDCUpdatedHook
                0x08005edc        0x2 ./gecko_sdk_4.3.0/platform/emlib/src/em_emu.o
                0x08005edc                EMU_DCDCUpdatedHook
 .text.BUS_RegMaskedWrite
                0x08005ede       0x22 ./gecko_sdk_4.3.0/platform/emlib/src/em_gpio.o
 .text.GPIO_DbgLocationSet
                0x08005f00        0x2 ./gecko_sdk_4.3.0/platform/emlib/src/em_gpio.o
                0x08005f00                GPIO_DbgLocationSet
 .text.USART_Rx
                0x08005f02        0xc ./gecko_sdk_4.3.0/platform/emlib/src/em_usart.o
                0x08005f02                USART_Rx
 .text.USART_SpiTransfer
                0x08005f0e       0x14 ./gecko_sdk_4.3.0/platform/emlib/src/em_usart.o
                0x08005f0e                USART_SpiTransfer
 .text.USART_Tx
                0x08005f22        0xa ./gecko_sdk_4.3.0/platform/emlib/src/em_usart.o
                0x08005f22                USART_Tx
 .text.GLIB_resetDisplayClippingArea
                0x08005f2c       0x14 ./gecko_sdk_4.3.0/platform/middleware/glib/glib/glib.o
                0x08005f2c                GLIB_resetDisplayClippingArea
 .text.GLIB_clear
                0x08005f40       0x36 ./gecko_sdk_4.3.0/platform/middleware/glib/glib/glib.o
                0x08005f40                GLIB_clear
 .text.GLIB_applyClippingRegion
                0x08005f76       0x2a ./gecko_sdk_4.3.0/platform/middleware/glib/glib/glib.o
                0x08005f76                GLIB_applyClippingRegion
 .text.GLIB_setClippingRegion
                0x08005fa0       0x48 ./gecko_sdk_4.3.0/platform/middleware/glib/glib/glib.o
                0x08005fa0                GLIB_setClippingRegion
 .text.GLIB_drawPixel
                0x08005fe8       0x38 ./gecko_sdk_4.3.0/platform/middleware/glib/glib/glib.o
                0x08005fe8                GLIB_drawPixel
 .text.GLIB_drawPixelColor
                0x08006020       0x36 ./gecko_sdk_4.3.0/platform/middleware/glib/glib/glib.o
                0x08006020                GLIB_drawPixelColor
 .text.GLIB_rectContainsPoint
                0x08006056       0x24 ./gecko_sdk_4.3.0/platform/middleware/glib/glib/glib_rectangle.o
                0x08006056                GLIB_rectContainsPoint
 .text.GLIB_drawChar
                0x0800607a      0x120 ./gecko_sdk_4.3.0/platform/middleware/glib/glib/glib_string.o
                0x0800607a                GLIB_drawChar
 .text.GLIB_drawString
                0x0800619a       0x78 ./gecko_sdk_4.3.0/platform/middleware/glib/glib/glib_string.o
                0x0800619a                GLIB_drawString
 .text.GLIB_setFont
                0x08006212       0x1a ./gecko_sdk_4.3.0/platform/middleware/glib/glib/glib_string.o
                0x08006212                GLIB_setFont
 .text.GLIB_drawStringOnLine
                0x0800622c       0x62 ./gecko_sdk_4.3.0/platform/middleware/glib/glib/glib_string.o
                0x0800622c                GLIB_drawStringOnLine
 .text.delay_callback
                0x0800628e        0x6 ./gecko_sdk_4.3.0/platform/service/sleeptimer/src/sl_sleeptimer.o
 .text.sl_sleeptimer_restart_periodic_timer
                0x08006294       0x38 ./gecko_sdk_4.3.0/platform/service/sleeptimer/src/sl_sleeptimer.o
                0x08006294                sl_sleeptimer_restart_periodic_timer
 .text.sl_sleeptimer_start_timer
                0x080062cc       0x48 ./gecko_sdk_4.3.0/platform/service/sleeptimer/src/sl_sleeptimer.o
                0x080062cc                sl_sleeptimer_start_timer
 .text.sleeptimer_hal_get_compare
                0x08006314        0x8 ./gecko_sdk_4.3.0/platform/service/sleeptimer/src/sl_sleeptimer_hal_sysrtc.o
                0x08006314                sleeptimer_hal_get_compare
 .text.sleeptimer_hal_enable_int
                0x0800631c       0x12 ./gecko_sdk_4.3.0/platform/service/sleeptimer/src/sl_sleeptimer_hal_sysrtc.o
                0x0800631c                sleeptimer_hal_enable_int
 .text.SYSRTC_APP_IRQHandler
                0x0800632e       0x34 ./gecko_sdk_4.3.0/platform/service/sleeptimer/src/sl_sleeptimer_hal_sysrtc.o
                0x0800632e                SYSRTC_APP_IRQHandler
 .text.sleeptimer_hal_get_timer_frequency
                0x08006362        0x6 ./gecko_sdk_4.3.0/platform/service/sleeptimer/src/sl_sleeptimer_hal_sysrtc.o
                0x08006362                sleeptimer_hal_get_timer_frequency
 .text.sl_system_init
                0x08006368       0x1a ./gecko_sdk_4.3.0/platform/service/system/src/sl_system_init.o
                0x08006368                sl_system_init
 .text.sl_system_kernel_start
                0x08006382        0x4 ./gecko_sdk_4.3.0/platform/service/system/src/sl_system_kernel.o
                0x08006382                sl_system_kernel_start
 .text.SysTick_Handler
                0x08006386       0x1a ./gecko_sdk_4.3.0/util/third_party/freertos/cmsis/Source/cmsis_os2.o
                0x08006386                SysTick_Handler
 .text.vListInitialise
                0x080063a0       0x16 ./gecko_sdk_4.3.0/util/third_party/freertos/kernel/list.o
                0x080063a0                vListInitialise
 .text.vListInitialiseItem
                0x080063b6        0x6 ./gecko_sdk_4.3.0/util/third_party/freertos/kernel/list.o
                0x080063b6                vListInitialiseItem
 .text.vListInsertEnd
                0x080063bc       0x18 ./gecko_sdk_4.3.0/util/third_party/freertos/kernel/list.o
                0x080063bc                vListInsertEnd
 .text.vListInsert
                0x080063d4       0x2e ./gecko_sdk_4.3.0/util/third_party/freertos/kernel/list.o
                0x080063d4                vListInsert
 .text.uxListRemove
                0x08006402       0x20 ./gecko_sdk_4.3.0/util/third_party/freertos/kernel/list.o
                0x08006402                uxListRemove
 .text.prvIsQueueEmpty
                0x08006422       0x16 ./gecko_sdk_4.3.0/util/third_party/freertos/kernel/queue.o
 .text.prvCopyDataToQueue
                0x08006438       0x6a ./gecko_sdk_4.3.0/util/third_party/freertos/kernel/queue.o
 .text.prvCopyDataFromQueue
                0x080064a2       0x2c ./gecko_sdk_4.3.0/util/third_party/freertos/kernel/queue.o
 .text.prvUnlockQueue
                0x080064ce       0x70 ./gecko_sdk_4.3.0/util/third_party/freertos/kernel/queue.o
 .text.vQueueWaitForMessageRestricted
                0x0800653e       0x46 ./gecko_sdk_4.3.0/util/third_party/freertos/kernel/queue.o
                0x0800653e                vQueueWaitForMessageRestricted
 .text.prvInitialiseNewTask.constprop.0
                0x08006584       0xa6 ./gecko_sdk_4.3.0/util/third_party/freertos/kernel/tasks.o
 .text.xTaskCreate
                0x0800662a       0x5a ./gecko_sdk_4.3.0/util/third_party/freertos/kernel/tasks.o
                0x0800662a                xTaskCreate
 .text.vPortYield
                0x08006684       0x16 ./gecko_sdk_4.3.0/util/third_party/freertos/kernel/portable/GCC/ARM_CM33_NTZ/non_secure/port.o
                0x08006684                vPortYield
 .text.xPortSysTickHandler
                0x0800669a       0x24 ./gecko_sdk_4.3.0/util/third_party/freertos/kernel/portable/GCC/ARM_CM33_NTZ/non_secure/port.o
                0x0800669a                xPortSysTickHandler
 .text.ulSetInterruptMask
                0x080066be       0x16 ./gecko_sdk_4.3.0/util/third_party/freertos/kernel/portable/GCC/ARM_CM33_NTZ/non_secure/portasm.o
                0x080066be                ulSetInterruptMask
 .text.vClearInterruptMask
                0x080066d4        0xe ./gecko_sdk_4.3.0/util/third_party/freertos/kernel/portable/GCC/ARM_CM33_NTZ/non_secure/portasm.o
                0x080066d4                vClearInterruptMask
 .text.memcpy   0x080066e2       0x1a c:/siliconlabs/simplicitystudio/v5/developer/toolchains/gnu_arm/10.3_2021.10/bin/../lib/gcc/arm-none-eabi/10.3.1/../../../../arm-none-eabi/lib/thumb/v8-m.main+fp/hard\libc_nano.a(lib_a-memcpy-stub.o)
                0x080066e2                memcpy
 .text.memset   0x080066fc       0x10 c:/siliconlabs/simplicitystudio/v5/developer/toolchains/gnu_arm/10.3_2021.10/bin/../lib/gcc/arm-none-eabi/10.3.1/../../../../arm-none-eabi/lib/thumb/v8-m.main+fp/hard\libc_nano.a(lib_a-memset.o)
                0x080066fc                memset
 .text          0x0800670c       0x10 c:/siliconlabs/simplicitystudio/v5/developer/toolchains/gnu_arm/10.3_2021.10/bin/../lib/gcc/arm-none-eabi/10.3.1/../../../../arm-none-eabi/lib/thumb/v8-m.main+fp/hard\libc_nano.a(lib_a-strlen.o)
                0x0800670c                strlen
 .text.__ssputs_r
                0x0800671c       0xb6 c:/siliconlabs/simplicitystudio/v5/developer/toolchains/gnu_arm/10.3_2021.10/bin/../lib/gcc/arm-none-eabi/10.3.1/../../../../arm-none-eabi/lib/thumb/v8-m.main+fp/hard\libc_nano.a(lib_a-nano-svfprintf.o)
                0x0800671c                __ssputs_r
 .text._printf_common
                0x080067d2       0xe0 c:/siliconlabs/simplicitystudio/v5/developer/toolchains/gnu_arm/10.3_2021.10/bin/../lib/gcc/arm-none-eabi/10.3.1/../../../../arm-none-eabi/lib/thumb/v8-m.main+fp/hard\libc_nano.a(lib_a-nano-vfprintf_i.o)
                0x080067d2                _printf_common
 .text.memchr   0x080068b2       0x1c c:/siliconlabs/simplicitystudio/v5/developer/toolchains/gnu_arm/10.3_2021.10/bin/../lib/gcc/arm-none-eabi/10.3.1/../../../../arm-none-eabi/lib/thumb/v8-m.main+fp/hard\libc_nano.a(lib_a-memchr-stub.o)
                0x080068b2                memchr
 .text.memmove  0x080068ce       0x34 c:/siliconlabs/simplicitystudio/v5/developer/toolchains/gnu_arm/10.3_2021.10/bin/../lib/gcc/arm-none-eabi/10.3.1/../../../../arm-none-eabi/lib/thumb/v8-m.main+fp/hard\libc_nano.a(lib_a-memmove.o)
                0x080068ce                memmove
 .text._realloc_r
                0x08006902       0x5e c:/siliconlabs/simplicitystudio/v5/developer/toolchains/gnu_arm/10.3_2021.10/bin/../lib/gcc/arm-none-eabi/10.3.1/../../../../arm-none-eabi/lib/thumb/v8-m.main+fp/hard\libc_nano.a(lib_a-nano-reallocr.o)
                0x08006902                _realloc_r
 .text._malloc_usable_size_r
                0x08006960       0x10 c:/siliconlabs/simplicitystudio/v5/developer/toolchains/gnu_arm/10.3_2021.10/bin/../lib/gcc/arm-none-eabi/10.3.1/../../../../arm-none-eabi/lib/thumb/v8-m.main+fp/hard\libc_nano.a(lib_a-nano-msizer.o)
                0x08006960                _malloc_usable_size_r
 .text.__retarget_lock_acquire_recursive
                0x08006970        0x2 c:/siliconlabs/simplicitystudio/v5/developer/toolchains/gnu_arm/10.3_2021.10/bin/../lib/gcc/arm-none-eabi/10.3.1/../../../../arm-none-eabi/lib/thumb/v8-m.main+fp/hard\libc_nano.a(lib_a-lock.o)
                0x08006970                __retarget_lock_acquire_recursive
 .text.__retarget_lock_release_recursive
                0x08006972        0x2 c:/siliconlabs/simplicitystudio/v5/developer/toolchains/gnu_arm/10.3_2021.10/bin/../lib/gcc/arm-none-eabi/10.3.1/../../../../arm-none-eabi/lib/thumb/v8-m.main+fp/hard\libc_nano.a(lib_a-lock.o)
                0x08006972                __retarget_lock_release_recursive
                0x08006974                linker_code_end = .
 *(.init)
 .init          0x08006974        0x4 c:/siliconlabs/simplicitystudio/v5/developer/toolchains/gnu_arm/10.3_2021.10/bin/../lib/gcc/arm-none-eabi/10.3.1/thumb/v8-m.main+fp/hard/crti.o
                0x08006974                _init
 .init          0x08006978        0x8 c:/siliconlabs/simplicitystudio/v5/developer/toolchains/gnu_arm/10.3_2021.10/bin/../lib/gcc/arm-none-eabi/10.3.1/thumb/v8-m.main+fp/hard/crtn.o
 *(.fini)
 .fini          0x08006980        0x4 c:/siliconlabs/simplicitystudio/v5/developer/toolchains/gnu_arm/10.3_2021.10/bin/../lib/gcc/arm-none-eabi/10.3.1/thumb/v8-m.main+fp/hard/crti.o
                0x08006980                _fini
 .fini          0x08006984        0x8 c:/siliconlabs/simplicitystudio/v5/developer/toolchains/gnu_arm/10.3_2021.10/bin/../lib/gcc/arm-none-eabi/10.3.1/thumb/v8-m.main+fp/hard/crtn.o
 *crtbegin.o(.ctors)
 *crtbegin?.o(.ctors)
 *(EXCLUDE_FILE(*crtend.o *crtend?.o) .ctors)
 *(SORT_BY_NAME(.ctors.*))
 *(.ctors)
 *crtbegin.o(.dtors)
 *crtbegin?.o(.dtors)
 *(EXCLUDE_FILE(*crtend.o *crtend?.o) .dtors)
 *(SORT_BY_NAME(.dtors.*))
 *(.dtors)
 *(.rodata*)
 .rodata.memlcd_app_init.str1.1
                0x0800698c       0x32 ./Handle_event/TFT.o
 .rodata.display_TASK.str1.1
                0x080069be       0x26 ./Handle_event/TFT.o
 .rodata.str1.1
                0x080069e4       0x3a ./Handle_event/TFT.o
 .rodata.task_init.str1.1
                0x08006a1e       0x3e ./RTOS_test.o
 .rodata.sl_button_btn0
                0x08006a5c       0x18 ./autogen/sl_simple_button_instances.o
                0x08006a5c                sl_button_btn0
 .rodata.sl_button_btn1
                0x08006a74       0x18 ./autogen/sl_simple_button_instances.o
                0x08006a74                sl_button_btn1
 .rodata.sl_led_led0
                0x08006a8c       0x18 ./autogen/sl_simple_led_instances.o
                0x08006a8c                sl_led_led0
 .rodata.sl_led_led1
                0x08006aa4       0x18 ./autogen/sl_simple_led_instances.o
                0x08006aa4                sl_led_led1
 .rodata.sl_board_enable_sensor.str1.1
                0x08006abc       0x5a ./gecko_sdk_4.3.0/hardware/board/src/sl_board_control_gpio.o
 *fill*         0x08006b16        0x2 
 .rodata        0x08006b18       0x1c ./gecko_sdk_4.3.0/hardware/driver/memlcd/src/memlcd_usart/sl_memlcd_spi.o
 .rodata        0x08006b34       0x14 ./gecko_sdk_4.3.0/hardware/driver/memlcd/src/sl_memlcd_display.o
 .rodata        0x08006b48       0x1c ./gecko_sdk_4.3.0/hardware/driver/mx25_flash_shutdown/src/sl_mx25_flash_shutdown_usart/sl_mx25_flash_shutdown.o
 .rodata.GPIO_PinInGet.str1.1
                0x08006b64       0x4c ./gecko_sdk_4.3.0/platform/driver/button/src/sl_simple_button.o
 .rodata.sl_simple_button_init.str1.1
                0x08006bb0       0x5d ./gecko_sdk_4.3.0/platform/driver/button/src/sl_simple_button.o
 .rodata.I2CSPM_Init.str1.1
                0x08006c0d       0x56 ./gecko_sdk_4.3.0/platform/driver/i2cspm/src/sl_i2cspm.o
                                 0xa2 (size before relaxing)
 .rodata.GPIO_PinOutClear.str1.1
                0x08006c63       0x4c ./gecko_sdk_4.3.0/platform/driver/leddrv/src/sl_simple_led.o
 .rodata.HFRCODPLLDevinfoGet.str1.1
                0x08006c63       0x4b ./gecko_sdk_4.3.0/platform/emlib/src/em_cmu.o
 .rodata.CORE_NvicMaskSetIRQ.str1.1
                0x08006cae       0x4c ./gecko_sdk_4.3.0/platform/emlib/src/em_core.o
 .rodata.EMU_VScaleEM01.str1.1
                0x08006cfa       0x4b ./gecko_sdk_4.3.0/platform/emlib/src/em_emu.o
 .rodata.BUS_RegBitWrite.str1.1
                0x08006d45       0x4b ./gecko_sdk_4.3.0/platform/emlib/src/em_gpio.o
 .rodata.GPIO_PinOutSet.str1.1
                0x08006d90       0x4c ./gecko_sdk_4.3.0/platform/emlib/src/em_gpio.o
 .rodata.GPIO_ExtIntConfig.str1.1
                0x08006d90       0x4c ./gecko_sdk_4.3.0/platform/emlib/src/em_gpio.o
 .rodata.I2C_BusFreqGet.str1.1
                0x08006ddc       0x4b ./gecko_sdk_4.3.0/platform/emlib/src/em_i2c.o
 *fill*         0x08006e27        0x1 
 .rodata.CSWTCH.13
                0x08006e28        0xc ./gecko_sdk_4.3.0/platform/emlib/src/em_i2c.o
 .rodata.CSWTCH.14
                0x08006e34        0xc ./gecko_sdk_4.3.0/platform/emlib/src/em_i2c.o
 .rodata.i2cNSum
                0x08006e40        0x4 ./gecko_sdk_4.3.0/platform/emlib/src/em_i2c.o
 .rodata.PRS_ConvertToSyncSource.str1.1
                0x08006e44       0x4b ./gecko_sdk_4.3.0/platform/emlib/src/em_prs.o
 .rodata.USART_BaudrateAsyncSet.str1.1
                0x08006e8f       0x4d ./gecko_sdk_4.3.0/platform/emlib/src/em_usart.o
 .rodata.GLIB_FontNarrow6x8
                0x08006edc       0x10 ./gecko_sdk_4.3.0/platform/middleware/glib/fonts/glib_font_narrow_6x8.o
                0x08006edc                GLIB_FontNarrow6x8
 .rodata.GLIB_FontNarrow6x8PixMap
                0x08006eec      0x320 ./gecko_sdk_4.3.0/platform/middleware/glib/fonts/glib_font_narrow_6x8.o
 .rodata.GLIB_FontNormal8x8
                0x0800720c       0x10 ./gecko_sdk_4.3.0/platform/middleware/glib/fonts/glib_font_normal_8x8.o
                0x0800720c                GLIB_FontNormal8x8
 .rodata.GLIB_FontNormal8x8PixMap
                0x0800721c      0x320 ./gecko_sdk_4.3.0/platform/middleware/glib/fonts/glib_font_normal_8x8.o
 .rodata.sl_sysrtc_init_group.str1.1
                0x0800753c       0x5b ./gecko_sdk_4.3.0/platform/peripheral/src/peripheral_sysrtc.o
 .rodata        0x08007597        0x7 ./gecko_sdk_4.3.0/platform/service/device_init/src/sl_device_init_dcdc_s2.o
 *fill*         0x0800759e        0x2 
 .rodata        0x080075a0       0x28 ./gecko_sdk_4.3.0/platform/service/device_init/src/sl_device_init_hfxo_s2.o
 .rodata.process_timer_irq.str1.1
                0x080075c8       0x5f ./gecko_sdk_4.3.0/platform/service/sleeptimer/src/sl_sleeptimer.o
 .rodata.sl_udelay_wait.str1.1
                0x08007627       0x57 ./gecko_sdk_4.3.0/platform/service/udelay/src/sl_udelay.o
 .rodata.vApplicationStackOverflowHook.str1.1
                0x0800767e       0x62 ./gecko_sdk_4.3.0/util/third_party/freertos/cmsis/Source/cmsis_os2.o
 .rodata.xQueueGenericReset.str1.1
                0x080076e0       0x58 ./gecko_sdk_4.3.0/util/third_party/freertos/kernel/queue.o
 .rodata.prvTaskIsTaskSuspended.str1.1
                0x08007738       0x58 ./gecko_sdk_4.3.0/util/third_party/freertos/kernel/tasks.o
 .rodata.vTaskStartScheduler.str1.1
                0x08007790        0x5 ./gecko_sdk_4.3.0/util/third_party/freertos/kernel/tasks.o
 .rodata.prvCheckForValidListAndQueue.str1.1
                0x08007795        0x5 ./gecko_sdk_4.3.0/util/third_party/freertos/kernel/timers.o
 .rodata.xTimerCreateTimerTask.str1.1
                0x0800779a       0x61 ./gecko_sdk_4.3.0/util/third_party/freertos/kernel/timers.o
 .rodata.prvTaskExitError.str1.1
                0x080077fb       0x7c ./gecko_sdk_4.3.0/util/third_party/freertos/kernel/portable/GCC/ARM_CM33_NTZ/non_secure/port.o
 .rodata.pvPortMalloc.str1.1
                0x08007877       0x6a ./gecko_sdk_4.3.0/util/third_party/freertos/kernel/portable/MemMang/heap_4.o
 *fill*         0x080078e1        0x3 
 .rodata._global_impure_ptr
                0x080078e4        0x4 c:/siliconlabs/simplicitystudio/v5/developer/toolchains/gnu_arm/10.3_2021.10/bin/../lib/gcc/arm-none-eabi/10.3.1/../../../../arm-none-eabi/lib/thumb/v8-m.main+fp/hard\libc_nano.a(lib_a-impure.o)
                0x080078e4                _global_impure_ptr
 .rodata._svfprintf_r.str1.1
                0x080078e8       0x11 c:/siliconlabs/simplicitystudio/v5/developer/toolchains/gnu_arm/10.3_2021.10/bin/../lib/gcc/arm-none-eabi/10.3.1/../../../../arm-none-eabi/lib/thumb/v8-m.main+fp/hard\libc_nano.a(lib_a-nano-svfprintf.o)
 .rodata._printf_i.str1.1
                0x080078f9       0x22 c:/siliconlabs/simplicitystudio/v5/developer/toolchains/gnu_arm/10.3_2021.10/bin/../lib/gcc/arm-none-eabi/10.3.1/../../../../arm-none-eabi/lib/thumb/v8-m.main+fp/hard\libc_nano.a(lib_a-nano-vfprintf_i.o)
 *(.eh_frame*)
 *fill*         0x0800791b        0x1 
 .eh_frame      0x0800791c        0x0 c:/siliconlabs/simplicitystudio/v5/developer/toolchains/gnu_arm/10.3_2021.10/bin/../lib/gcc/arm-none-eabi/10.3.1/thumb/v8-m.main+fp/hard/crtbegin.o

.glue_7         0x0800791c        0x0
 .glue_7        0x0800791c        0x0 linker stubs

.glue_7t        0x0800791c        0x0
 .glue_7t       0x0800791c        0x0 linker stubs

.vfp11_veneer   0x0800791c        0x0
 .vfp11_veneer  0x0800791c        0x0 linker stubs

.v4_bx          0x0800791c        0x0
 .v4_bx         0x0800791c        0x0 linker stubs

.iplt           0x0800791c        0x0
 .iplt          0x0800791c        0x0 c:/siliconlabs/simplicitystudio/v5/developer/toolchains/gnu_arm/10.3_2021.10/bin/../lib/gcc/arm-none-eabi/10.3.1/thumb/v8-m.main+fp/hard/crtbegin.o

.ARM.extab
 *(.ARM.extab* .gnu.linkonce.armextab.*)
                0x0800791c                __exidx_start = .

.ARM.exidx      0x0800791c        0x8
 *(.ARM.exidx* .gnu.linkonce.armexidx.*)
 .ARM.exidx     0x0800791c        0x8 c:/siliconlabs/simplicitystudio/v5/developer/toolchains/gnu_arm/10.3_2021.10/bin/../lib/gcc/arm-none-eabi/10.3.1/../../../../arm-none-eabi/lib/thumb/v8-m.main+fp/hard/crt0.o
                                 0x10 (size before relaxing)
 .ARM.exidx     0x08007924        0x0 c:/siliconlabs/simplicitystudio/v5/developer/toolchains/gnu_arm/10.3_2021.10/bin/../lib/gcc/arm-none-eabi/10.3.1/thumb/v8-m.main+fp/hard\libgcc.a(_udivmoddi4.o)
                                  0x8 (size before relaxing)
                0x08007924                __exidx_end = .

.rel.dyn        0x08007924        0x0
 .rel.iplt      0x08007924        0x0 c:/siliconlabs/simplicitystudio/v5/developer/toolchains/gnu_arm/10.3_2021.10/bin/../lib/gcc/arm-none-eabi/10.3.1/thumb/v8-m.main+fp/hard/crtbegin.o

.copy.table     0x08007924        0xc
                0x08007924                . = ALIGN (0x4)
                0x08007924                __copy_table_start__ = .
                0x08007924        0x4 LONG 0x8007930 __etext
                0x08007928        0x4 LONG 0x20001000 __data_start__
                0x0800792c        0x4 LONG 0x38 ((__data_end__ - __data_start__) / 0x4)
                0x08007930                __copy_table_end__ = .

.zero.table     0x08007930        0x0
                0x08007930                . = ALIGN (0x4)
                0x08007930                __zero_table_start__ = .
                0x08007930                __zero_table_end__ = .
                0x08007930                __etext = .
                0x20000000                . = ORIGIN (RAM)

.stack          0x20000000     0x1000
                0x20000000                __StackLimit = .
 *(.stack*)
 .stack         0x20000000     0x1000 ./gecko_sdk_4.3.0/platform/common/toolchain/src/sl_memory.o
                0x20001000                . = ALIGN (0x4)
                0x20001000                __StackTop = .
                0x20001000                PROVIDE (__stack = __StackTop)

.noinit
 *(.noinit*)

.data           0x20001000       0xe0 load address 0x08007930
                0x20001000                . = ALIGN (0x4)
                0x20001000                __data_start__ = .
 *(vtable)
 *(SORT_BY_ALIGNMENT(.data*))
 .data.led_mode_display
                0x20001000       0x14 ./Handle_event/TFT.o
                0x20001000                led_mode_display
 .data.init_sensor
                0x20001014       0x14 ./autogen/sl_i2cspm_init.o
                0x20001014                init_sensor
 .data.sl_i2cspm_sensor
                0x20001028        0x4 ./autogen/sl_i2cspm_init.o
                0x20001028                sl_i2cspm_sensor
 .data.spi_handle
                0x2000102c       0x10 ./gecko_sdk_4.3.0/hardware/driver/memlcd/src/sl_memlcd.o
 .data.SystemCoreClock
                0x2000103c        0x4 ./gecko_sdk_4.3.0/platform/Device/SiliconLabs/ZGM23/Source/system_zgm23.o
                0x2000103c                SystemCoreClock
 .data.SystemHFRCODPLLClock
                0x20001040        0x4 ./gecko_sdk_4.3.0/platform/Device/SiliconLabs/ZGM23/Source/system_zgm23.o
 .data.SystemHFXOClock
                0x20001044        0x4 ./gecko_sdk_4.3.0/platform/Device/SiliconLabs/ZGM23/Source/system_zgm23.o
 .data.SystemLFXOClock
                0x20001048        0x4 ./gecko_sdk_4.3.0/platform/Device/SiliconLabs/ZGM23/Source/system_zgm23.o
 .data.heap_end.0
                0x2000104c        0x4 ./gecko_sdk_4.3.0/platform/common/toolchain/src/sl_memory.o
 .data.uxTopUsedPriority
                0x20001050        0x4 ./gecko_sdk_4.3.0/util/third_party/freertos/kernel/tasks.o
                0x20001050                uxTopUsedPriority
 .data.ulCriticalNesting
                0x20001054        0x4 ./gecko_sdk_4.3.0/util/third_party/freertos/kernel/portable/GCC/ARM_CM33_NTZ/non_secure/port.o
 .data._impure_ptr
                0x20001058        0x4 c:/siliconlabs/simplicitystudio/v5/developer/toolchains/gnu_arm/10.3_2021.10/bin/../lib/gcc/arm-none-eabi/10.3.1/../../../../arm-none-eabi/lib/thumb/v8-m.main+fp/hard\libc_nano.a(lib_a-impure.o)
                0x20001058                _impure_ptr
 .data.impure_data
                0x2000105c       0x60 c:/siliconlabs/simplicitystudio/v5/developer/toolchains/gnu_arm/10.3_2021.10/bin/../lib/gcc/arm-none-eabi/10.3.1/../../../../arm-none-eabi/lib/thumb/v8-m.main+fp/hard\libc_nano.a(lib_a-impure.o)
 .data.simple_btn0_context
                0x200010bc        0x8 ./autogen/sl_simple_button_instances.o
                0x200010bc                simple_btn0_context
 .data.simple_btn1_context
                0x200010c4        0x8 ./autogen/sl_simple_button_instances.o
                0x200010c4                simple_btn1_context
 .data.hfxo_precision
                0x200010cc        0x2 ./gecko_sdk_4.3.0/platform/emlib/src/em_cmu.o
 .data.simple_led0_context
                0x200010ce        0x3 ./autogen/sl_simple_led_instances.o
                0x200010ce                simple_led0_context
 .data.simple_led1_context
                0x200010d1        0x3 ./autogen/sl_simple_led_instances.o
                0x200010d1                simple_led1_context
 .data.ctuneDelta
                0x200010d4        0x1 ./gecko_sdk_4.3.0/platform/emlib/src/em_cmu.o
 .data.cc1_disabled
                0x200010d5        0x1 ./gecko_sdk_4.3.0/platform/service/sleeptimer/src/sl_sleeptimer_hal_sysrtc.o
 .data.cc_disabled
                0x200010d6        0x1 ./gecko_sdk_4.3.0/platform/service/sleeptimer/src/sl_sleeptimer_hal_sysrtc.o
                0x200010d8                . = ALIGN (0x4)
 *fill*         0x200010d7        0x1 
                [!provide]                PROVIDE (__ram_func_section_start = .)
 *(.ram)
                [!provide]                PROVIDE (__ram_func_section_end = .)
                0x200010d8                . = ALIGN (0x4)
                0x200010d8                PROVIDE (__preinit_array_start = .)
 *(.preinit_array)
                0x200010d8                PROVIDE (__preinit_array_end = .)
                0x200010d8                . = ALIGN (0x4)
                0x200010d8                PROVIDE (__init_array_start = .)
 *(SORT_BY_NAME(.init_array.*))
 *(.init_array)
 .init_array    0x200010d8        0x4 c:/siliconlabs/simplicitystudio/v5/developer/toolchains/gnu_arm/10.3_2021.10/bin/../lib/gcc/arm-none-eabi/10.3.1/thumb/v8-m.main+fp/hard/crtbegin.o
                0x200010dc                PROVIDE (__init_array_end = .)
                0x200010dc                . = ALIGN (0x4)
                [!provide]                PROVIDE (__fini_array_start = .)
 *(SORT_BY_NAME(.fini_array.*))
 *(.fini_array)
 .fini_array    0x200010dc        0x4 c:/siliconlabs/simplicitystudio/v5/developer/toolchains/gnu_arm/10.3_2021.10/bin/../lib/gcc/arm-none-eabi/10.3.1/thumb/v8-m.main+fp/hard/crtbegin.o
                [!provide]                PROVIDE (__fini_array_end = .)
                0x200010e0                . = ALIGN (0x4)
                0x200010e0                __data_end__ = .

.igot.plt       0x200010e0        0x0 load address 0x08007a10
 .igot.plt      0x200010e0        0x0 c:/siliconlabs/simplicitystudio/v5/developer/toolchains/gnu_arm/10.3_2021.10/bin/../lib/gcc/arm-none-eabi/10.3.1/thumb/v8-m.main+fp/hard/crtbegin.o

.bss            0x200010e0     0x3740 load address 0x08007a10
                0x200010e0                . = ALIGN (0x4)
                0x200010e0                __bss_start__ = .
 *(SORT_BY_ALIGNMENT(.bss*))
 .bss           0x200010e0       0x1c c:/siliconlabs/simplicitystudio/v5/developer/toolchains/gnu_arm/10.3_2021.10/bin/../lib/gcc/arm-none-eabi/10.3.1/thumb/v8-m.main+fp/hard/crtbegin.o
 .bss.currentLine
                0x200010fc        0x4 ./Handle_event/TFT.o
 .bss.glibContext
                0x20001100       0x2c ./Handle_event/TFT.o
                0x20001100                glibContext
 .bss.Blink_Queue
                0x2000112c        0x4 ./RTOS_test.o
                0x2000112c                Blink_Queue
 .bss.Sensor_Queue
                0x20001130        0x4 ./RTOS_test.o
                0x20001130                Sensor_Queue
 .bss.xHandle1  0x20001134        0x4 ./RTOS_test.o
                0x20001134                xHandle1
 .bss.xHandle2  0x20001138        0x4 ./RTOS_test.o
                0x20001138                xHandle2
 .bss.xReturned_task1
                0x2000113c        0x4 ./RTOS_test.o
                0x2000113c                xReturned_task1
 .bss.extcomin_timer
                0x20001140       0x20 ./gecko_sdk_4.3.0/hardware/driver/memlcd/src/sl_memlcd.o
 .bss.memlcd_instance
                0x20001160       0x14 ./gecko_sdk_4.3.0/hardware/driver/memlcd/src/sl_memlcd.o
 .bss.gpioCallbacks
                0x20001174      0x200 ./gecko_sdk_4.3.0/platform/emdrv/gpiointerrupt/src/gpiointerrupt.o
 .bss.i2cTransfer
                0x20001374       0x18 ./gecko_sdk_4.3.0/platform/emlib/src/em_i2c.o
 .bss.dirtyRows
                0x2000138c       0x10 ./gecko_sdk_4.3.0/platform/middleware/glib/dmd/display/dmd_memlcd.o
 .bss.memlcd    0x2000139c        0x4 ./gecko_sdk_4.3.0/platform/middleware/glib/dmd/display/dmd_memlcd.o
 .bss.last_delta_update_count
                0x200013a0        0x4 ./gecko_sdk_4.3.0/platform/service/sleeptimer/src/sl_sleeptimer.o
 .bss.max_millisecond_conversion
                0x200013a4        0x4 ./gecko_sdk_4.3.0/platform/service/sleeptimer/src/sl_sleeptimer.o
 .bss.timer_frequency
                0x200013a8        0x4 ./gecko_sdk_4.3.0/platform/service/sleeptimer/src/sl_sleeptimer.o
 .bss.timer_head
                0x200013ac        0x4 ./gecko_sdk_4.3.0/platform/service/sleeptimer/src/sl_sleeptimer.o
 .bss.Idle_Stack.2
                0x200013b0      0x280 ./gecko_sdk_4.3.0/util/third_party/freertos/cmsis/Source/cmsis_os2.o
 .bss.Idle_TCB.3
                0x20001630       0x58 ./gecko_sdk_4.3.0/util/third_party/freertos/cmsis/Source/cmsis_os2.o
 .bss.KernelState
                0x20001688        0x4 ./gecko_sdk_4.3.0/util/third_party/freertos/cmsis/Source/cmsis_os2.o
 .bss.Timer_Stack.0
                0x2000168c      0x280 ./gecko_sdk_4.3.0/util/third_party/freertos/cmsis/Source/cmsis_os2.o
 .bss.Timer_TCB.1
                0x2000190c       0x58 ./gecko_sdk_4.3.0/util/third_party/freertos/cmsis/Source/cmsis_os2.o
 .bss.xQueueRegistry
                0x20001964       0x50 ./gecko_sdk_4.3.0/util/third_party/freertos/kernel/queue.o
                0x20001964                xQueueRegistry
 .bss.pxCurrentTCB
                0x200019b4        0x4 ./gecko_sdk_4.3.0/util/third_party/freertos/kernel/tasks.o
                0x200019b4                pxCurrentTCB
 .bss.pxDelayedTaskList
                0x200019b8        0x4 ./gecko_sdk_4.3.0/util/third_party/freertos/kernel/tasks.o
 .bss.pxOverflowDelayedTaskList
                0x200019bc        0x4 ./gecko_sdk_4.3.0/util/third_party/freertos/kernel/tasks.o
 .bss.pxReadyTasksLists
                0x200019c0      0x460 ./gecko_sdk_4.3.0/util/third_party/freertos/kernel/tasks.o
 .bss.uxCurrentNumberOfTasks
                0x20001e20        0x4 ./gecko_sdk_4.3.0/util/third_party/freertos/kernel/tasks.o
 .bss.uxDeletedTasksWaitingCleanUp
                0x20001e24        0x4 ./gecko_sdk_4.3.0/util/third_party/freertos/kernel/tasks.o
 .bss.uxSchedulerSuspended
                0x20001e28        0x4 ./gecko_sdk_4.3.0/util/third_party/freertos/kernel/tasks.o
 .bss.uxTaskNumber
                0x20001e2c        0x4 ./gecko_sdk_4.3.0/util/third_party/freertos/kernel/tasks.o
 .bss.uxTopReadyPriority
                0x20001e30        0x4 ./gecko_sdk_4.3.0/util/third_party/freertos/kernel/tasks.o
 .bss.xDelayedTaskList1
                0x20001e34       0x14 ./gecko_sdk_4.3.0/util/third_party/freertos/kernel/tasks.o
 .bss.xDelayedTaskList2
                0x20001e48       0x14 ./gecko_sdk_4.3.0/util/third_party/freertos/kernel/tasks.o
 .bss.xNextTaskUnblockTime
                0x20001e5c        0x4 ./gecko_sdk_4.3.0/util/third_party/freertos/kernel/tasks.o
 .bss.xNumOfOverflows
                0x20001e60        0x4 ./gecko_sdk_4.3.0/util/third_party/freertos/kernel/tasks.o
 .bss.xPendedTicks
                0x20001e64        0x4 ./gecko_sdk_4.3.0/util/third_party/freertos/kernel/tasks.o
 .bss.xPendingReadyList
                0x20001e68       0x14 ./gecko_sdk_4.3.0/util/third_party/freertos/kernel/tasks.o
 .bss.xSchedulerRunning
                0x20001e7c        0x4 ./gecko_sdk_4.3.0/util/third_party/freertos/kernel/tasks.o
 .bss.xSuspendedTaskList
                0x20001e80       0x14 ./gecko_sdk_4.3.0/util/third_party/freertos/kernel/tasks.o
 .bss.xTasksWaitingTermination
                0x20001e94       0x14 ./gecko_sdk_4.3.0/util/third_party/freertos/kernel/tasks.o
 .bss.xTickCount
                0x20001ea8        0x4 ./gecko_sdk_4.3.0/util/third_party/freertos/kernel/tasks.o
 .bss.xYieldPending
                0x20001eac        0x4 ./gecko_sdk_4.3.0/util/third_party/freertos/kernel/tasks.o
 .bss.pxCurrentTimerList
                0x20001eb0        0x4 ./gecko_sdk_4.3.0/util/third_party/freertos/kernel/timers.o
 .bss.pxOverflowTimerList
                0x20001eb4        0x4 ./gecko_sdk_4.3.0/util/third_party/freertos/kernel/timers.o
 .bss.xActiveTimerList1
                0x20001eb8       0x14 ./gecko_sdk_4.3.0/util/third_party/freertos/kernel/timers.o
 .bss.xActiveTimerList2
                0x20001ecc       0x14 ./gecko_sdk_4.3.0/util/third_party/freertos/kernel/timers.o
 .bss.xLastTime.2
                0x20001ee0        0x4 ./gecko_sdk_4.3.0/util/third_party/freertos/kernel/timers.o
 .bss.xStaticTimerQueue.0
                0x20001ee4       0x50 ./gecko_sdk_4.3.0/util/third_party/freertos/kernel/timers.o
 .bss.xTimerQueue
                0x20001f34        0x4 ./gecko_sdk_4.3.0/util/third_party/freertos/kernel/timers.o
 .bss.xTimerTaskHandle
                0x20001f38        0x4 ./gecko_sdk_4.3.0/util/third_party/freertos/kernel/timers.o
 .bss.pxEnd     0x20001f3c        0x4 ./gecko_sdk_4.3.0/util/third_party/freertos/kernel/portable/MemMang/heap_4.o
 .bss.xBlockAllocatedBit
                0x20001f40        0x4 ./gecko_sdk_4.3.0/util/third_party/freertos/kernel/portable/MemMang/heap_4.o
 .bss.xFreeBytesRemaining
                0x20001f44        0x4 ./gecko_sdk_4.3.0/util/third_party/freertos/kernel/portable/MemMang/heap_4.o
 .bss.xMinimumEverFreeBytesRemaining
                0x20001f48        0x4 ./gecko_sdk_4.3.0/util/third_party/freertos/kernel/portable/MemMang/heap_4.o
 .bss.xNumberOfSuccessfulAllocations
                0x20001f4c        0x4 ./gecko_sdk_4.3.0/util/third_party/freertos/kernel/portable/MemMang/heap_4.o
 .bss.xNumberOfSuccessfulFrees
                0x20001f50        0x4 ./gecko_sdk_4.3.0/util/third_party/freertos/kernel/portable/MemMang/heap_4.o
 .bss.xStart    0x20001f54        0x8 ./gecko_sdk_4.3.0/util/third_party/freertos/kernel/portable/MemMang/heap_4.o
 .bss.__malloc_free_list
                0x20001f5c        0x4 c:/siliconlabs/simplicitystudio/v5/developer/toolchains/gnu_arm/10.3_2021.10/bin/../lib/gcc/arm-none-eabi/10.3.1/../../../../arm-none-eabi/lib/thumb/v8-m.main+fp/hard\libc_nano.a(lib_a-nano-mallocr.o)
                0x20001f5c                __malloc_free_list
 .bss.__malloc_sbrk_start
                0x20001f60        0x4 c:/siliconlabs/simplicitystudio/v5/developer/toolchains/gnu_arm/10.3_2021.10/bin/../lib/gcc/arm-none-eabi/10.3.1/../../../../arm-none-eabi/lib/thumb/v8-m.main+fp/hard\libc_nano.a(lib_a-nano-mallocr.o)
                0x20001f60                __malloc_sbrk_start
 .bss.errno     0x20001f64        0x4 c:/siliconlabs/simplicitystudio/v5/developer/toolchains/gnu_arm/10.3_2021.10/bin/../lib/gcc/arm-none-eabi/10.3.1/../../../../arm-none-eabi/lib/thumb/v8-m.main+fp/hard\libc_nano.a(lib_a-reent.o)
                0x20001f64                errno
 .bss.dimensions
                0x20001f68        0xc ./gecko_sdk_4.3.0/platform/middleware/glib/dmd/display/dmd_memlcd.o
 .bss.overflow_counter
                0x20001f74        0x2 ./gecko_sdk_4.3.0/platform/service/sleeptimer/src/sl_sleeptimer.o
 .bss.Blink     0x20001f76        0x1 ./RTOS_test.o
                0x20001f76                Blink
 .bss.initialized
                0x20001f77        0x1 ./gecko_sdk_4.3.0/hardware/driver/memlcd/src/sl_memlcd.o
 .bss.vScaleEM01Config
                0x20001f78        0x1 ./gecko_sdk_4.3.0/platform/emlib/src/em_emu.o
 .bss.framebuffer
                0x20001f79      0x800 ./gecko_sdk_4.3.0/platform/middleware/glib/dmd/display/dmd_memlcd.o
 .bss.is_sleeptimer_initialized
                0x20002779        0x1 ./gecko_sdk_4.3.0/platform/service/sleeptimer/src/sl_sleeptimer.o
 .bss.next_timer_to_expire_is_power_manager
                0x2000277a        0x1 ./gecko_sdk_4.3.0/platform/service/sleeptimer/src/sl_sleeptimer.o
 .bss.sleep_on_isr_exit
                0x2000277b        0x1 ./gecko_sdk_4.3.0/platform/service/sleeptimer/src/sl_sleeptimer.o
 .bss.ucStaticTimerQueueStorage.1
                0x2000277c       0xa0 ./gecko_sdk_4.3.0/util/third_party/freertos/kernel/timers.o
 .bss.ucHeap    0x2000281c     0x2000 ./gecko_sdk_4.3.0/util/third_party/freertos/kernel/portable/MemMang/heap_4.o
 .bss.__lock___malloc_recursive_mutex
                0x2000481c        0x1 c:/siliconlabs/simplicitystudio/v5/developer/toolchains/gnu_arm/10.3_2021.10/bin/../lib/gcc/arm-none-eabi/10.3.1/../../../../arm-none-eabi/lib/thumb/v8-m.main+fp/hard\libc_nano.a(lib_a-lock.o)
                0x2000481c                __lock___malloc_recursive_mutex
 *(COMMON)
                0x20004820                . = ALIGN (0x4)
 *fill*         0x2000481d        0x3 
                0x20004820                __bss_end__ = .

.heap           0x20004820      0x800
                0x20004820                __HeapBase = .
                0x20004820                __end__ = .
                0x20004820                end = __end__
                0x20004820                _end = __end__
 *(.heap*)
 .heap          0x20004820      0x800 ./gecko_sdk_4.3.0/platform/common/toolchain/src/sl_memory.o
                0x20010000                __HeapLimit = (ORIGIN (RAM) + LENGTH (RAM))
                0x0000b7e0                __heap_size = (__HeapLimit - __HeapBase)
                0x20010000                __ram_end__ = 0x20010000
                0x0807e000                __main_flash_end__ = 0x807e000

.internal_storage
                0x08007930        0x0
 *(.internal_storage*)

.nvm            0x08007930        0x0
 *(.simee*)
                0x0807e000                linker_nvm_end = __main_flash_end__
                0x0807e000                linker_nvm_begin = (linker_nvm_end - SIZEOF (.nvm))
                0x00000000                linker_nvm_size = SIZEOF (.nvm)
                0x0807e000                linker_storage_end = linker_nvm_begin
                0x0807e000                __nvm3Base = linker_nvm_begin
                0x0807e000                linker_storage_begin = (linker_storage_end - SIZEOF (.internal_storage))
                0x00000000                linker_storage_size = SIZEOF (.internal_storage)
                0x00000001                ASSERT ((linker_storage_begin >= (__etext + SIZEOF (.data))), FLASH memory overflowed !)
                0x0807e000                app_flash_end = 0x807e000
                0x00000001                ASSERT (((linker_nvm_begin + SIZEOF (.nvm)) <= app_flash_end), NVM3 is excessing the flash size !)
OUTPUT(Final_RTOS_Demo.axf elf32-littlearm)
LOAD linker stubs

.ARM.attributes
                0x00000000       0x36
 .ARM.attributes
                0x00000000       0x22 c:/siliconlabs/simplicitystudio/v5/developer/toolchains/gnu_arm/10.3_2021.10/bin/../lib/gcc/arm-none-eabi/10.3.1/thumb/v8-m.main+fp/hard/crti.o
 .ARM.attributes
                0x00000022       0x38 c:/siliconlabs/simplicitystudio/v5/developer/toolchains/gnu_arm/10.3_2021.10/bin/../lib/gcc/arm-none-eabi/10.3.1/thumb/v8-m.main+fp/hard/crtbegin.o
 .ARM.attributes
                0x0000005a       0x20 c:/siliconlabs/simplicitystudio/v5/developer/toolchains/gnu_arm/10.3_2021.10/bin/../lib/gcc/arm-none-eabi/10.3.1/../../../../arm-none-eabi/lib/thumb/v8-m.main+fp/hard/crt0.o
 .ARM.attributes
                0x0000007a       0x3a ./Handle_event/I2C_handle.o
 .ARM.attributes
                0x000000b4       0x3a ./Handle_event/TFT.o
 .ARM.attributes
                0x000000ee       0x3a ./Handle_event/blink.o
 .ARM.attributes
                0x00000128       0x3a ./RTOS_test.o
 .ARM.attributes
                0x00000162       0x3a ./app.o
 .ARM.attributes
                0x0000019c       0x3a ./main.o
 .ARM.attributes
                0x000001d6       0x3a ./autogen/sl_board_default_init.o
 .ARM.attributes
                0x00000210       0x3a ./autogen/sl_device_init_clocks.o
 .ARM.attributes
                0x0000024a       0x3a ./autogen/sl_event_handler.o
 .ARM.attributes
                0x00000284       0x3a ./autogen/sl_i2cspm_init.o
 .ARM.attributes
                0x000002be       0x3a ./autogen/sl_simple_button_instances.o
 .ARM.attributes
                0x000002f8       0x3a ./autogen/sl_simple_led_instances.o
 .ARM.attributes
                0x00000332       0x3a ./gecko_sdk_4.3.0/hardware/board/src/sl_board_control_gpio.o
 .ARM.attributes
                0x0000036c       0x3a ./gecko_sdk_4.3.0/hardware/board/src/sl_board_init.o
 .ARM.attributes
                0x000003a6       0x3a ./gecko_sdk_4.3.0/hardware/driver/configuration_over_swo/src/sl_cos.o
 .ARM.attributes
                0x000003e0       0x3a ./gecko_sdk_4.3.0/hardware/driver/memlcd/src/memlcd_usart/sl_memlcd_spi.o
 .ARM.attributes
                0x0000041a       0x3a ./gecko_sdk_4.3.0/hardware/driver/memlcd/src/sl_memlcd.o
 .ARM.attributes
                0x00000454       0x3a ./gecko_sdk_4.3.0/hardware/driver/memlcd/src/sl_memlcd_display.o
 .ARM.attributes
                0x0000048e       0x3a ./gecko_sdk_4.3.0/hardware/driver/mx25_flash_shutdown/src/sl_mx25_flash_shutdown_usart/sl_mx25_flash_shutdown.o
 .ARM.attributes
                0x000004c8       0x3a ./gecko_sdk_4.3.0/hardware/driver/si70xx/src/sl_si70xx.o
 .ARM.attributes
                0x00000502       0x3a ./gecko_sdk_4.3.0/platform/Device/SiliconLabs/ZGM23/Source/startup_zgm23.o
 .ARM.attributes
                0x0000053c       0x3a ./gecko_sdk_4.3.0/platform/Device/SiliconLabs/ZGM23/Source/system_zgm23.o
 .ARM.attributes
                0x00000576       0x3a ./gecko_sdk_4.3.0/platform/common/src/sl_assert.o
 .ARM.attributes
                0x000005b0       0x3a ./gecko_sdk_4.3.0/platform/common/toolchain/src/sl_memory.o
 .ARM.attributes
                0x000005ea       0x3a ./gecko_sdk_4.3.0/platform/driver/button/src/sl_button.o
 .ARM.attributes
                0x00000624       0x3a ./gecko_sdk_4.3.0/platform/driver/button/src/sl_simple_button.o
 .ARM.attributes
                0x0000065e       0x3a ./gecko_sdk_4.3.0/platform/driver/debug/src/sl_debug_swo.o
 .ARM.attributes
                0x00000698       0x3a ./gecko_sdk_4.3.0/platform/driver/i2cspm/src/sl_i2cspm.o
 .ARM.attributes
                0x000006d2       0x3a ./gecko_sdk_4.3.0/platform/driver/leddrv/src/sl_led.o
 .ARM.attributes
                0x0000070c       0x3a ./gecko_sdk_4.3.0/platform/driver/leddrv/src/sl_simple_led.o
 .ARM.attributes
                0x00000746       0x3a ./gecko_sdk_4.3.0/platform/emdrv/gpiointerrupt/src/gpiointerrupt.o
 .ARM.attributes
                0x00000780       0x3a ./gecko_sdk_4.3.0/platform/emlib/src/em_cmu.o
 .ARM.attributes
                0x000007ba       0x3a ./gecko_sdk_4.3.0/platform/emlib/src/em_core.o
 .ARM.attributes
                0x000007f4       0x3a ./gecko_sdk_4.3.0/platform/emlib/src/em_emu.o
 .ARM.attributes
                0x0000082e       0x3a ./gecko_sdk_4.3.0/platform/emlib/src/em_gpio.o
 .ARM.attributes
                0x00000868       0x3a ./gecko_sdk_4.3.0/platform/emlib/src/em_i2c.o
 .ARM.attributes
                0x000008a2       0x3a ./gecko_sdk_4.3.0/platform/emlib/src/em_prs.o
 .ARM.attributes
                0x000008dc       0x3a ./gecko_sdk_4.3.0/platform/emlib/src/em_usart.o
 .ARM.attributes
                0x00000916       0x3a ./gecko_sdk_4.3.0/platform/middleware/glib/dmd/display/dmd_memlcd.o
 .ARM.attributes
                0x00000950       0x3a ./gecko_sdk_4.3.0/platform/middleware/glib/fonts/glib_font_narrow_6x8.o
 .ARM.attributes
                0x0000098a       0x3a ./gecko_sdk_4.3.0/platform/middleware/glib/fonts/glib_font_normal_8x8.o
 .ARM.attributes
                0x000009c4       0x3a ./gecko_sdk_4.3.0/platform/middleware/glib/glib/glib.o
 .ARM.attributes
                0x000009fe       0x3a ./gecko_sdk_4.3.0/platform/middleware/glib/glib/glib_rectangle.o
 .ARM.attributes
                0x00000a38       0x3a ./gecko_sdk_4.3.0/platform/middleware/glib/glib/glib_string.o
 .ARM.attributes
                0x00000a72       0x3a ./gecko_sdk_4.3.0/platform/peripheral/src/peripheral_sysrtc.o
 .ARM.attributes
                0x00000aac       0x3a ./gecko_sdk_4.3.0/platform/service/device_init/src/sl_device_init_dcdc_s2.o
 .ARM.attributes
                0x00000ae6       0x3a ./gecko_sdk_4.3.0/platform/service/device_init/src/sl_device_init_emu_s2.o
 .ARM.attributes
                0x00000b20       0x3a ./gecko_sdk_4.3.0/platform/service/device_init/src/sl_device_init_hfxo_s2.o
 .ARM.attributes
                0x00000b5a       0x3a ./gecko_sdk_4.3.0/platform/service/device_init/src/sl_device_init_nvic.o
 .ARM.attributes
                0x00000b94       0x3a ./gecko_sdk_4.3.0/platform/service/sleeptimer/src/sl_sleeptimer.o
 .ARM.attributes
                0x00000bce       0x3a ./gecko_sdk_4.3.0/platform/service/sleeptimer/src/sl_sleeptimer_hal_sysrtc.o
 .ARM.attributes
                0x00000c08       0x3a ./gecko_sdk_4.3.0/platform/service/system/src/sl_system_init.o
 .ARM.attributes
                0x00000c42       0x3a ./gecko_sdk_4.3.0/platform/service/system/src/sl_system_kernel.o
 .ARM.attributes
                0x00000c7c       0x3a ./gecko_sdk_4.3.0/platform/service/udelay/src/sl_udelay.o
 .ARM.attributes
                0x00000cb6       0x26 ./gecko_sdk_4.3.0/platform/service/udelay/src/sl_udelay_armv6m_gcc.o
 .ARM.attributes
                0x00000cdc       0x3a ./gecko_sdk_4.3.0/util/third_party/freertos/cmsis/Source/cmsis_os2.o
 .ARM.attributes
                0x00000d16       0x3a ./gecko_sdk_4.3.0/util/third_party/freertos/kernel/list.o
 .ARM.attributes
                0x00000d50       0x3a ./gecko_sdk_4.3.0/util/third_party/freertos/kernel/queue.o
 .ARM.attributes
                0x00000d8a       0x3a ./gecko_sdk_4.3.0/util/third_party/freertos/kernel/tasks.o
 .ARM.attributes
                0x00000dc4       0x3a ./gecko_sdk_4.3.0/util/third_party/freertos/kernel/timers.o
 .ARM.attributes
                0x00000dfe       0x3a ./gecko_sdk_4.3.0/util/third_party/freertos/kernel/portable/GCC/ARM_CM33_NTZ/non_secure/port.o
 .ARM.attributes
                0x00000e38       0x3a ./gecko_sdk_4.3.0/util/third_party/freertos/kernel/portable/GCC/ARM_CM33_NTZ/non_secure/portasm.o
 .ARM.attributes
                0x00000e72       0x3a ./gecko_sdk_4.3.0/util/third_party/freertos/kernel/portable/MemMang/heap_4.o
 .ARM.attributes
                0x00000eac       0x22 c:/siliconlabs/simplicitystudio/v5/developer/toolchains/gnu_arm/10.3_2021.10/bin/../lib/gcc/arm-none-eabi/10.3.1/thumb/v8-m.main+fp/hard\libgcc.a(_aeabi_uldivmod.o)
 .ARM.attributes
                0x00000ece       0x38 c:/siliconlabs/simplicitystudio/v5/developer/toolchains/gnu_arm/10.3_2021.10/bin/../lib/gcc/arm-none-eabi/10.3.1/thumb/v8-m.main+fp/hard\libgcc.a(_udivmoddi4.o)
 .ARM.attributes
                0x00000f06       0x22 c:/siliconlabs/simplicitystudio/v5/developer/toolchains/gnu_arm/10.3_2021.10/bin/../lib/gcc/arm-none-eabi/10.3.1/thumb/v8-m.main+fp/hard\libgcc.a(_dvmd_tls.o)
 .ARM.attributes
                0x00000f28       0x38 c:/siliconlabs/simplicitystudio/v5/developer/toolchains/gnu_arm/10.3_2021.10/bin/../lib/gcc/arm-none-eabi/10.3.1/../../../../arm-none-eabi/lib/thumb/v8-m.main+fp/hard\libc_nano.a(lib_a-exit.o)
 .ARM.attributes
                0x00000f60       0x38 c:/siliconlabs/simplicitystudio/v5/developer/toolchains/gnu_arm/10.3_2021.10/bin/../lib/gcc/arm-none-eabi/10.3.1/../../../../arm-none-eabi/lib/thumb/v8-m.main+fp/hard\libc_nano.a(lib_a-impure.o)
 .ARM.attributes
                0x00000f98       0x38 c:/siliconlabs/simplicitystudio/v5/developer/toolchains/gnu_arm/10.3_2021.10/bin/../lib/gcc/arm-none-eabi/10.3.1/../../../../arm-none-eabi/lib/thumb/v8-m.main+fp/hard\libc_nano.a(lib_a-init.o)
 .ARM.attributes
                0x00000fd0       0x38 c:/siliconlabs/simplicitystudio/v5/developer/toolchains/gnu_arm/10.3_2021.10/bin/../lib/gcc/arm-none-eabi/10.3.1/../../../../arm-none-eabi/lib/thumb/v8-m.main+fp/hard\libc_nano.a(lib_a-memcpy-stub.o)
 .ARM.attributes
                0x00001008       0x38 c:/siliconlabs/simplicitystudio/v5/developer/toolchains/gnu_arm/10.3_2021.10/bin/../lib/gcc/arm-none-eabi/10.3.1/../../../../arm-none-eabi/lib/thumb/v8-m.main+fp/hard\libc_nano.a(lib_a-memset.o)
 .ARM.attributes
                0x00001040       0x38 c:/siliconlabs/simplicitystudio/v5/developer/toolchains/gnu_arm/10.3_2021.10/bin/../lib/gcc/arm-none-eabi/10.3.1/../../../../arm-none-eabi/lib/thumb/v8-m.main+fp/hard\libc_nano.a(lib_a-sprintf.o)
 .ARM.attributes
                0x00001078       0x17 c:/siliconlabs/simplicitystudio/v5/developer/toolchains/gnu_arm/10.3_2021.10/bin/../lib/gcc/arm-none-eabi/10.3.1/../../../../arm-none-eabi/lib/thumb/v8-m.main+fp/hard\libc_nano.a(lib_a-strlen.o)
 .ARM.attributes
                0x0000108f       0x38 c:/siliconlabs/simplicitystudio/v5/developer/toolchains/gnu_arm/10.3_2021.10/bin/../lib/gcc/arm-none-eabi/10.3.1/../../../../arm-none-eabi/lib/thumb/v8-m.main+fp/hard\libc_nano.a(lib_a-nano-svfprintf.o)
 .ARM.attributes
                0x000010c7       0x38 c:/siliconlabs/simplicitystudio/v5/developer/toolchains/gnu_arm/10.3_2021.10/bin/../lib/gcc/arm-none-eabi/10.3.1/../../../../arm-none-eabi/lib/thumb/v8-m.main+fp/hard\libc_nano.a(lib_a-nano-vfprintf_i.o)
 .ARM.attributes
                0x000010ff       0x38 c:/siliconlabs/simplicitystudio/v5/developer/toolchains/gnu_arm/10.3_2021.10/bin/../lib/gcc/arm-none-eabi/10.3.1/../../../../arm-none-eabi/lib/thumb/v8-m.main+fp/hard\libc_nano.a(lib_a-memchr-stub.o)
 .ARM.attributes
                0x00001137       0x38 c:/siliconlabs/simplicitystudio/v5/developer/toolchains/gnu_arm/10.3_2021.10/bin/../lib/gcc/arm-none-eabi/10.3.1/../../../../arm-none-eabi/lib/thumb/v8-m.main+fp/hard\libc_nano.a(lib_a-memmove.o)
 .ARM.attributes
                0x0000116f       0x38 c:/siliconlabs/simplicitystudio/v5/developer/toolchains/gnu_arm/10.3_2021.10/bin/../lib/gcc/arm-none-eabi/10.3.1/../../../../arm-none-eabi/lib/thumb/v8-m.main+fp/hard\libc_nano.a(lib_a-nano-freer.o)
 .ARM.attributes
                0x000011a7       0x38 c:/siliconlabs/simplicitystudio/v5/developer/toolchains/gnu_arm/10.3_2021.10/bin/../lib/gcc/arm-none-eabi/10.3.1/../../../../arm-none-eabi/lib/thumb/v8-m.main+fp/hard\libc_nano.a(lib_a-nano-mallocr.o)
 .ARM.attributes
                0x000011df       0x38 c:/siliconlabs/simplicitystudio/v5/developer/toolchains/gnu_arm/10.3_2021.10/bin/../lib/gcc/arm-none-eabi/10.3.1/../../../../arm-none-eabi/lib/thumb/v8-m.main+fp/hard\libc_nano.a(lib_a-nano-reallocr.o)
 .ARM.attributes
                0x00001217       0x38 c:/siliconlabs/simplicitystudio/v5/developer/toolchains/gnu_arm/10.3_2021.10/bin/../lib/gcc/arm-none-eabi/10.3.1/../../../../arm-none-eabi/lib/thumb/v8-m.main+fp/hard\libc_nano.a(lib_a-sbrkr.o)
 .ARM.attributes
                0x0000124f       0x38 c:/siliconlabs/simplicitystudio/v5/developer/toolchains/gnu_arm/10.3_2021.10/bin/../lib/gcc/arm-none-eabi/10.3.1/../../../../arm-none-eabi/lib/thumb/v8-m.main+fp/hard\libc_nano.a(lib_a-mlock.o)
 .ARM.attributes
                0x00001287       0x38 c:/siliconlabs/simplicitystudio/v5/developer/toolchains/gnu_arm/10.3_2021.10/bin/../lib/gcc/arm-none-eabi/10.3.1/../../../../arm-none-eabi/lib/thumb/v8-m.main+fp/hard\libc_nano.a(lib_a-nano-msizer.o)
 .ARM.attributes
                0x000012bf       0x38 c:/siliconlabs/simplicitystudio/v5/developer/toolchains/gnu_arm/10.3_2021.10/bin/../lib/gcc/arm-none-eabi/10.3.1/../../../../arm-none-eabi/lib/thumb/v8-m.main+fp/hard\libc_nano.a(lib_a-reent.o)
 .ARM.attributes
                0x000012f7       0x38 c:/siliconlabs/simplicitystudio/v5/developer/toolchains/gnu_arm/10.3_2021.10/bin/../lib/gcc/arm-none-eabi/10.3.1/../../../../arm-none-eabi/lib/thumb/v8-m.main+fp/hard\libc_nano.a(lib_a-lock.o)
 .ARM.attributes
                0x0000132f       0x38 c:/siliconlabs/simplicitystudio/v5/developer/toolchains/gnu_arm/10.3_2021.10/bin/../lib/gcc/arm-none-eabi/10.3.1/../../../../arm-none-eabi/lib/thumb/v8-m.main+fp/hard\libnosys.a(_exit.o)
 .ARM.attributes
                0x00001367       0x22 c:/siliconlabs/simplicitystudio/v5/developer/toolchains/gnu_arm/10.3_2021.10/bin/../lib/gcc/arm-none-eabi/10.3.1/thumb/v8-m.main+fp/hard/crtn.o

.comment        0x00000000       0x49
 .comment       0x00000000       0x49 ./Handle_event/I2C_handle.o
                                 0x4a (size before relaxing)
 .comment       0x00000049       0x4a ./Handle_event/TFT.o
 .comment       0x00000049       0x4a ./Handle_event/blink.o
 .comment       0x00000049       0x4a ./RTOS_test.o
 .comment       0x00000049       0x4a ./app.o
 .comment       0x00000049       0x4a ./main.o
 .comment       0x00000049       0x4a ./autogen/sl_board_default_init.o
 .comment       0x00000049       0x4a ./autogen/sl_device_init_clocks.o
 .comment       0x00000049       0x4a ./autogen/sl_event_handler.o
 .comment       0x00000049       0x4a ./autogen/sl_i2cspm_init.o
 .comment       0x00000049       0x4a ./autogen/sl_simple_button_instances.o
 .comment       0x00000049       0x4a ./autogen/sl_simple_led_instances.o
 .comment       0x00000049       0x4a ./gecko_sdk_4.3.0/hardware/board/src/sl_board_control_gpio.o
 .comment       0x00000049       0x4a ./gecko_sdk_4.3.0/hardware/board/src/sl_board_init.o
 .comment       0x00000049       0x4a ./gecko_sdk_4.3.0/hardware/driver/configuration_over_swo/src/sl_cos.o
 .comment       0x00000049       0x4a ./gecko_sdk_4.3.0/hardware/driver/memlcd/src/memlcd_usart/sl_memlcd_spi.o
 .comment       0x00000049       0x4a ./gecko_sdk_4.3.0/hardware/driver/memlcd/src/sl_memlcd.o
 .comment       0x00000049       0x4a ./gecko_sdk_4.3.0/hardware/driver/memlcd/src/sl_memlcd_display.o
 .comment       0x00000049       0x4a ./gecko_sdk_4.3.0/hardware/driver/mx25_flash_shutdown/src/sl_mx25_flash_shutdown_usart/sl_mx25_flash_shutdown.o
 .comment       0x00000049       0x4a ./gecko_sdk_4.3.0/hardware/driver/si70xx/src/sl_si70xx.o
 .comment       0x00000049       0x4a ./gecko_sdk_4.3.0/platform/Device/SiliconLabs/ZGM23/Source/startup_zgm23.o
 .comment       0x00000049       0x4a ./gecko_sdk_4.3.0/platform/Device/SiliconLabs/ZGM23/Source/system_zgm23.o
 .comment       0x00000049       0x4a ./gecko_sdk_4.3.0/platform/common/src/sl_assert.o
 .comment       0x00000049       0x4a ./gecko_sdk_4.3.0/platform/common/toolchain/src/sl_memory.o
 .comment       0x00000049       0x4a ./gecko_sdk_4.3.0/platform/driver/button/src/sl_button.o
 .comment       0x00000049       0x4a ./gecko_sdk_4.3.0/platform/driver/button/src/sl_simple_button.o
 .comment       0x00000049       0x4a ./gecko_sdk_4.3.0/platform/driver/debug/src/sl_debug_swo.o
 .comment       0x00000049       0x4a ./gecko_sdk_4.3.0/platform/driver/i2cspm/src/sl_i2cspm.o
 .comment       0x00000049       0x4a ./gecko_sdk_4.3.0/platform/driver/leddrv/src/sl_led.o
 .comment       0x00000049       0x4a ./gecko_sdk_4.3.0/platform/driver/leddrv/src/sl_simple_led.o
 .comment       0x00000049       0x4a ./gecko_sdk_4.3.0/platform/emdrv/gpiointerrupt/src/gpiointerrupt.o
 .comment       0x00000049       0x4a ./gecko_sdk_4.3.0/platform/emlib/src/em_cmu.o
 .comment       0x00000049       0x4a ./gecko_sdk_4.3.0/platform/emlib/src/em_core.o
 .comment       0x00000049       0x4a ./gecko_sdk_4.3.0/platform/emlib/src/em_emu.o
 .comment       0x00000049       0x4a ./gecko_sdk_4.3.0/platform/emlib/src/em_gpio.o
 .comment       0x00000049       0x4a ./gecko_sdk_4.3.0/platform/emlib/src/em_i2c.o
 .comment       0x00000049       0x4a ./gecko_sdk_4.3.0/platform/emlib/src/em_prs.o
 .comment       0x00000049       0x4a ./gecko_sdk_4.3.0/platform/emlib/src/em_usart.o
 .comment       0x00000049       0x4a ./gecko_sdk_4.3.0/platform/middleware/glib/dmd/display/dmd_memlcd.o
 .comment       0x00000049       0x4a ./gecko_sdk_4.3.0/platform/middleware/glib/fonts/glib_font_narrow_6x8.o
 .comment       0x00000049       0x4a ./gecko_sdk_4.3.0/platform/middleware/glib/fonts/glib_font_normal_8x8.o
 .comment       0x00000049       0x4a ./gecko_sdk_4.3.0/platform/middleware/glib/glib/glib.o
 .comment       0x00000049       0x4a ./gecko_sdk_4.3.0/platform/middleware/glib/glib/glib_rectangle.o
 .comment       0x00000049       0x4a ./gecko_sdk_4.3.0/platform/middleware/glib/glib/glib_string.o
 .comment       0x00000049       0x4a ./gecko_sdk_4.3.0/platform/peripheral/src/peripheral_sysrtc.o
 .comment       0x00000049       0x4a ./gecko_sdk_4.3.0/platform/service/device_init/src/sl_device_init_dcdc_s2.o
 .comment       0x00000049       0x4a ./gecko_sdk_4.3.0/platform/service/device_init/src/sl_device_init_emu_s2.o
 .comment       0x00000049       0x4a ./gecko_sdk_4.3.0/platform/service/device_init/src/sl_device_init_hfxo_s2.o
 .comment       0x00000049       0x4a ./gecko_sdk_4.3.0/platform/service/device_init/src/sl_device_init_nvic.o
 .comment       0x00000049       0x4a ./gecko_sdk_4.3.0/platform/service/sleeptimer/src/sl_sleeptimer.o
 .comment       0x00000049       0x4a ./gecko_sdk_4.3.0/platform/service/sleeptimer/src/sl_sleeptimer_hal_sysrtc.o
 .comment       0x00000049       0x4a ./gecko_sdk_4.3.0/platform/service/system/src/sl_system_init.o
 .comment       0x00000049       0x4a ./gecko_sdk_4.3.0/platform/service/system/src/sl_system_kernel.o
 .comment       0x00000049       0x4a ./gecko_sdk_4.3.0/platform/service/udelay/src/sl_udelay.o
 .comment       0x00000049       0x4a ./gecko_sdk_4.3.0/util/third_party/freertos/cmsis/Source/cmsis_os2.o
 .comment       0x00000049       0x4a ./gecko_sdk_4.3.0/util/third_party/freertos/kernel/list.o
 .comment       0x00000049       0x4a ./gecko_sdk_4.3.0/util/third_party/freertos/kernel/queue.o
 .comment       0x00000049       0x4a ./gecko_sdk_4.3.0/util/third_party/freertos/kernel/tasks.o
 .comment       0x00000049       0x4a ./gecko_sdk_4.3.0/util/third_party/freertos/kernel/timers.o
 .comment       0x00000049       0x4a ./gecko_sdk_4.3.0/util/third_party/freertos/kernel/portable/GCC/ARM_CM33_NTZ/non_secure/port.o
 .comment       0x00000049       0x4a ./gecko_sdk_4.3.0/util/third_party/freertos/kernel/portable/GCC/ARM_CM33_NTZ/non_secure/portasm.o
 .comment       0x00000049       0x4a ./gecko_sdk_4.3.0/util/third_party/freertos/kernel/portable/MemMang/heap_4.o

.debug_info     0x00000000    0x50ba6
 .debug_info    0x00000000      0x6bd ./Handle_event/I2C_handle.o
 .debug_info    0x000006bd      0x7f3 ./Handle_event/TFT.o
 .debug_info    0x00000eb0      0x399 ./Handle_event/blink.o
 .debug_info    0x00001249      0x322 ./RTOS_test.o
 .debug_info    0x0000156b      0x334 ./app.o
 .debug_info    0x0000189f       0x96 ./main.o
 .debug_info    0x00001935       0xa3 ./autogen/sl_board_default_init.o
 .debug_info    0x000019d8     0x1498 ./autogen/sl_device_init_clocks.o
 .debug_info    0x00002e70     0x16d6 ./autogen/sl_event_handler.o
 .debug_info    0x00004546      0x89a ./autogen/sl_i2cspm_init.o
 .debug_info    0x00004de0      0x367 ./autogen/sl_simple_button_instances.o
 .debug_info    0x00005147      0x2c0 ./autogen/sl_simple_led_instances.o
 .debug_info    0x00005407      0x550 ./gecko_sdk_4.3.0/hardware/board/src/sl_board_control_gpio.o
 .debug_info    0x00005957      0x346 ./gecko_sdk_4.3.0/hardware/board/src/sl_board_init.o
 .debug_info    0x00005c9d      0x404 ./gecko_sdk_4.3.0/hardware/driver/configuration_over_swo/src/sl_cos.o
 .debug_info    0x000060a1     0x27d2 ./gecko_sdk_4.3.0/hardware/driver/memlcd/src/memlcd_usart/sl_memlcd_spi.o
 .debug_info    0x00008873     0x2b02 ./gecko_sdk_4.3.0/hardware/driver/memlcd/src/sl_memlcd.o
 .debug_info    0x0000b375      0x1a4 ./gecko_sdk_4.3.0/hardware/driver/memlcd/src/sl_memlcd_display.o
 .debug_info    0x0000b519     0x26a1 ./gecko_sdk_4.3.0/hardware/driver/mx25_flash_shutdown/src/sl_mx25_flash_shutdown_usart/sl_mx25_flash_shutdown.o
 .debug_info    0x0000dbba     0x1001 ./gecko_sdk_4.3.0/hardware/driver/si70xx/src/sl_si70xx.o
 .debug_info    0x0000ebbb      0x327 ./gecko_sdk_4.3.0/platform/Device/SiliconLabs/ZGM23/Source/startup_zgm23.o
 .debug_info    0x0000eee2     0x2491 ./gecko_sdk_4.3.0/platform/Device/SiliconLabs/ZGM23/Source/system_zgm23.o
 .debug_info    0x00011373       0x86 ./gecko_sdk_4.3.0/platform/common/src/sl_assert.o
 .debug_info    0x000113f9      0x205 ./gecko_sdk_4.3.0/platform/common/toolchain/src/sl_memory.o
 .debug_info    0x000115fe      0x2d6 ./gecko_sdk_4.3.0/platform/driver/button/src/sl_button.o
 .debug_info    0x000118d4     0x20d7 ./gecko_sdk_4.3.0/platform/driver/button/src/sl_simple_button.o
 .debug_info    0x000139ab     0x2744 ./gecko_sdk_4.3.0/platform/driver/debug/src/sl_debug_swo.o
 .debug_info    0x000160ef     0x23d1 ./gecko_sdk_4.3.0/platform/driver/i2cspm/src/sl_i2cspm.o
 .debug_info    0x000184c0      0x25e ./gecko_sdk_4.3.0/platform/driver/leddrv/src/sl_led.o
 .debug_info    0x0001871e     0x1e94 ./gecko_sdk_4.3.0/platform/driver/leddrv/src/sl_simple_led.o
 .debug_info    0x0001a5b2     0x2256 ./gecko_sdk_4.3.0/platform/emdrv/gpiointerrupt/src/gpiointerrupt.o
 .debug_info    0x0001c808     0xa7f8 ./gecko_sdk_4.3.0/platform/emlib/src/em_cmu.o
 .debug_info    0x00027000     0x13fc ./gecko_sdk_4.3.0/platform/emlib/src/em_core.o
 .debug_info    0x000283fc     0x3b19 ./gecko_sdk_4.3.0/platform/emlib/src/em_emu.o
 .debug_info    0x0002bf15     0x2949 ./gecko_sdk_4.3.0/platform/emlib/src/em_gpio.o
 .debug_info    0x0002e85e     0x13b5 ./gecko_sdk_4.3.0/platform/emlib/src/em_i2c.o
 .debug_info    0x0002fc13     0x408f ./gecko_sdk_4.3.0/platform/emlib/src/em_prs.o
 .debug_info    0x00033ca2     0x4c0d ./gecko_sdk_4.3.0/platform/emlib/src/em_usart.o
 .debug_info    0x000388af      0x9d8 ./gecko_sdk_4.3.0/platform/middleware/glib/dmd/display/dmd_memlcd.o
 .debug_info    0x00039287      0x1c5 ./gecko_sdk_4.3.0/platform/middleware/glib/fonts/glib_font_narrow_6x8.o
 .debug_info    0x0003944c      0x1c5 ./gecko_sdk_4.3.0/platform/middleware/glib/fonts/glib_font_normal_8x8.o
 .debug_info    0x00039611      0xd90 ./gecko_sdk_4.3.0/platform/middleware/glib/glib/glib.o
 .debug_info    0x0003a3a1      0x602 ./gecko_sdk_4.3.0/platform/middleware/glib/glib/glib_rectangle.o
 .debug_info    0x0003a9a3      0x97c ./gecko_sdk_4.3.0/platform/middleware/glib/glib/glib_string.o
 .debug_info    0x0003b31f      0xd1b ./gecko_sdk_4.3.0/platform/peripheral/src/peripheral_sysrtc.o
 .debug_info    0x0003c03a      0x357 ./gecko_sdk_4.3.0/platform/service/device_init/src/sl_device_init_dcdc_s2.o
 .debug_info    0x0003c391      0xb36 ./gecko_sdk_4.3.0/platform/service/device_init/src/sl_device_init_emu_s2.o
 .debug_info    0x0003cec7      0x884 ./gecko_sdk_4.3.0/platform/service/device_init/src/sl_device_init_hfxo_s2.o
 .debug_info    0x0003d74b      0x84f ./gecko_sdk_4.3.0/platform/service/device_init/src/sl_device_init_nvic.o
 .debug_info    0x0003df9a     0x1f57 ./gecko_sdk_4.3.0/platform/service/sleeptimer/src/sl_sleeptimer.o
 .debug_info    0x0003fef1     0x1cdf ./gecko_sdk_4.3.0/platform/service/sleeptimer/src/sl_sleeptimer_hal_sysrtc.o
 .debug_info    0x00041bd0       0xba ./gecko_sdk_4.3.0/platform/service/system/src/sl_system_init.o
 .debug_info    0x00041c8a       0x5d ./gecko_sdk_4.3.0/platform/service/system/src/sl_system_kernel.o
 .debug_info    0x00041ce7      0x180 ./gecko_sdk_4.3.0/platform/service/udelay/src/sl_udelay.o
 .debug_info    0x00041e67       0x26 ./gecko_sdk_4.3.0/platform/service/udelay/src/sl_udelay_armv6m_gcc.o
 .debug_info    0x00041e8d     0x6092 ./gecko_sdk_4.3.0/util/third_party/freertos/cmsis/Source/cmsis_os2.o
 .debug_info    0x00047f1f      0x308 ./gecko_sdk_4.3.0/util/third_party/freertos/kernel/list.o
 .debug_info    0x00048227     0x295d ./gecko_sdk_4.3.0/util/third_party/freertos/kernel/queue.o
 .debug_info    0x0004ab84     0x3671 ./gecko_sdk_4.3.0/util/third_party/freertos/kernel/tasks.o
 .debug_info    0x0004e1f5     0x1da3 ./gecko_sdk_4.3.0/util/third_party/freertos/kernel/timers.o
 .debug_info    0x0004ff98      0x485 ./gecko_sdk_4.3.0/util/third_party/freertos/kernel/portable/GCC/ARM_CM33_NTZ/non_secure/port.o
 .debug_info    0x0005041d      0x176 ./gecko_sdk_4.3.0/util/third_party/freertos/kernel/portable/GCC/ARM_CM33_NTZ/non_secure/portasm.o
 .debug_info    0x00050593      0x613 ./gecko_sdk_4.3.0/util/third_party/freertos/kernel/portable/MemMang/heap_4.o

.debug_abbrev   0x00000000     0x8614
 .debug_abbrev  0x00000000      0x165 ./Handle_event/I2C_handle.o
 .debug_abbrev  0x00000165      0x1fa ./Handle_event/TFT.o
 .debug_abbrev  0x0000035f      0x17d ./Handle_event/blink.o
 .debug_abbrev  0x000004dc      0x102 ./RTOS_test.o
 .debug_abbrev  0x000005de      0x196 ./app.o
 .debug_abbrev  0x00000774       0x5e ./main.o
 .debug_abbrev  0x000007d2       0x6a ./autogen/sl_board_default_init.o
 .debug_abbrev  0x0000083c       0xf2 ./autogen/sl_device_init_clocks.o
 .debug_abbrev  0x0000092e      0x1b8 ./autogen/sl_event_handler.o
 .debug_abbrev  0x00000ae6      0x16b ./autogen/sl_i2cspm_init.o
 .debug_abbrev  0x00000c51      0x158 ./autogen/sl_simple_button_instances.o
 .debug_abbrev  0x00000da9      0x147 ./autogen/sl_simple_led_instances.o
 .debug_abbrev  0x00000ef0      0x17f ./gecko_sdk_4.3.0/hardware/board/src/sl_board_control_gpio.o
 .debug_abbrev  0x0000106f      0x108 ./gecko_sdk_4.3.0/hardware/board/src/sl_board_init.o
 .debug_abbrev  0x00001177      0x207 ./gecko_sdk_4.3.0/hardware/driver/configuration_over_swo/src/sl_cos.o
 .debug_abbrev  0x0000137e      0x2a8 ./gecko_sdk_4.3.0/hardware/driver/memlcd/src/memlcd_usart/sl_memlcd_spi.o
 .debug_abbrev  0x00001626      0x389 ./gecko_sdk_4.3.0/hardware/driver/memlcd/src/sl_memlcd.o
 .debug_abbrev  0x000019af       0xde ./gecko_sdk_4.3.0/hardware/driver/memlcd/src/sl_memlcd_display.o
 .debug_abbrev  0x00001a8d      0x1fe ./gecko_sdk_4.3.0/hardware/driver/mx25_flash_shutdown/src/sl_mx25_flash_shutdown_usart/sl_mx25_flash_shutdown.o
 .debug_abbrev  0x00001c8b      0x32f ./gecko_sdk_4.3.0/hardware/driver/si70xx/src/sl_si70xx.o
 .debug_abbrev  0x00001fba      0x1c9 ./gecko_sdk_4.3.0/platform/Device/SiliconLabs/ZGM23/Source/startup_zgm23.o
 .debug_abbrev  0x00002183      0x325 ./gecko_sdk_4.3.0/platform/Device/SiliconLabs/ZGM23/Source/system_zgm23.o
 .debug_abbrev  0x000024a8       0x6c ./gecko_sdk_4.3.0/platform/common/src/sl_assert.o
 .debug_abbrev  0x00002514      0x11e ./gecko_sdk_4.3.0/platform/common/toolchain/src/sl_memory.o
 .debug_abbrev  0x00002632      0x131 ./gecko_sdk_4.3.0/platform/driver/button/src/sl_button.o
 .debug_abbrev  0x00002763      0x336 ./gecko_sdk_4.3.0/platform/driver/button/src/sl_simple_button.o
 .debug_abbrev  0x00002a99      0x2c2 ./gecko_sdk_4.3.0/platform/driver/debug/src/sl_debug_swo.o
 .debug_abbrev  0x00002d5b      0x27a ./gecko_sdk_4.3.0/platform/driver/i2cspm/src/sl_i2cspm.o
 .debug_abbrev  0x00002fd5       0xfd ./gecko_sdk_4.3.0/platform/driver/leddrv/src/sl_led.o
 .debug_abbrev  0x000030d2      0x2da ./gecko_sdk_4.3.0/platform/driver/leddrv/src/sl_simple_led.o
 .debug_abbrev  0x000033ac      0x380 ./gecko_sdk_4.3.0/platform/emdrv/gpiointerrupt/src/gpiointerrupt.o
 .debug_abbrev  0x0000372c      0x55e ./gecko_sdk_4.3.0/platform/emlib/src/em_cmu.o
 .debug_abbrev  0x00003c8a      0x329 ./gecko_sdk_4.3.0/platform/emlib/src/em_core.o
 .debug_abbrev  0x00003fb3      0x494 ./gecko_sdk_4.3.0/platform/emlib/src/em_emu.o
 .debug_abbrev  0x00004447      0x314 ./gecko_sdk_4.3.0/platform/emlib/src/em_gpio.o
 .debug_abbrev  0x0000475b      0x423 ./gecko_sdk_4.3.0/platform/emlib/src/em_i2c.o
 .debug_abbrev  0x00004b7e      0x2da ./gecko_sdk_4.3.0/platform/emlib/src/em_prs.o
 .debug_abbrev  0x00004e58      0x33a ./gecko_sdk_4.3.0/platform/emlib/src/em_usart.o
 .debug_abbrev  0x00005192      0x2a4 ./gecko_sdk_4.3.0/platform/middleware/glib/dmd/display/dmd_memlcd.o
 .debug_abbrev  0x00005436       0xe8 ./gecko_sdk_4.3.0/platform/middleware/glib/fonts/glib_font_narrow_6x8.o
 .debug_abbrev  0x0000551e       0xe8 ./gecko_sdk_4.3.0/platform/middleware/glib/fonts/glib_font_normal_8x8.o
 .debug_abbrev  0x00005606      0x333 ./gecko_sdk_4.3.0/platform/middleware/glib/glib/glib.o
 .debug_abbrev  0x00005939      0x1d3 ./gecko_sdk_4.3.0/platform/middleware/glib/glib/glib_rectangle.o
 .debug_abbrev  0x00005b0c      0x272 ./gecko_sdk_4.3.0/platform/middleware/glib/glib/glib_string.o
 .debug_abbrev  0x00005d7e      0x245 ./gecko_sdk_4.3.0/platform/peripheral/src/peripheral_sysrtc.o
 .debug_abbrev  0x00005fc3       0xed ./gecko_sdk_4.3.0/platform/service/device_init/src/sl_device_init_dcdc_s2.o
 .debug_abbrev  0x000060b0      0x13a ./gecko_sdk_4.3.0/platform/service/device_init/src/sl_device_init_emu_s2.o
 .debug_abbrev  0x000061ea      0x171 ./gecko_sdk_4.3.0/platform/service/device_init/src/sl_device_init_hfxo_s2.o
 .debug_abbrev  0x0000635b      0x144 ./gecko_sdk_4.3.0/platform/service/device_init/src/sl_device_init_nvic.o
 .debug_abbrev  0x0000649f      0x487 ./gecko_sdk_4.3.0/platform/service/sleeptimer/src/sl_sleeptimer.o
 .debug_abbrev  0x00006926      0x3d3 ./gecko_sdk_4.3.0/platform/service/sleeptimer/src/sl_sleeptimer_hal_sysrtc.o
 .debug_abbrev  0x00006cf9       0x5f ./gecko_sdk_4.3.0/platform/service/system/src/sl_system_init.o
 .debug_abbrev  0x00006d58       0x54 ./gecko_sdk_4.3.0/platform/service/system/src/sl_system_kernel.o
 .debug_abbrev  0x00006dac       0xf1 ./gecko_sdk_4.3.0/platform/service/udelay/src/sl_udelay.o
 .debug_abbrev  0x00006e9d       0x14 ./gecko_sdk_4.3.0/platform/service/udelay/src/sl_udelay_armv6m_gcc.o
 .debug_abbrev  0x00006eb1      0x540 ./gecko_sdk_4.3.0/util/third_party/freertos/cmsis/Source/cmsis_os2.o
 .debug_abbrev  0x000073f1      0x124 ./gecko_sdk_4.3.0/util/third_party/freertos/kernel/list.o
 .debug_abbrev  0x00007515      0x38d ./gecko_sdk_4.3.0/util/third_party/freertos/kernel/queue.o
 .debug_abbrev  0x000078a2      0x482 ./gecko_sdk_4.3.0/util/third_party/freertos/kernel/tasks.o
 .debug_abbrev  0x00007d24      0x3ed ./gecko_sdk_4.3.0/util/third_party/freertos/kernel/timers.o
 .debug_abbrev  0x00008111      0x1f6 ./gecko_sdk_4.3.0/util/third_party/freertos/kernel/portable/GCC/ARM_CM33_NTZ/non_secure/port.o
 .debug_abbrev  0x00008307       0xb8 ./gecko_sdk_4.3.0/util/third_party/freertos/kernel/portable/GCC/ARM_CM33_NTZ/non_secure/portasm.o
 .debug_abbrev  0x000083bf      0x255 ./gecko_sdk_4.3.0/util/third_party/freertos/kernel/portable/MemMang/heap_4.o

.debug_loc      0x00000000    0x1c69b
 .debug_loc     0x00000000       0x45 ./Handle_event/I2C_handle.o
 .debug_loc     0x00000045       0xc5 ./Handle_event/TFT.o
 .debug_loc     0x0000010a       0x45 ./Handle_event/blink.o
 .debug_loc     0x0000014f       0x2c ./RTOS_test.o
 .debug_loc     0x0000017b       0x86 ./app.o
 .debug_loc     0x00000201       0x20 ./main.o
 .debug_loc     0x00000221       0x20 ./autogen/sl_device_init_clocks.o
 .debug_loc     0x00000241       0xcf ./autogen/sl_event_handler.o
 .debug_loc     0x00000310       0x2c ./autogen/sl_i2cspm_init.o
 .debug_loc     0x0000033c       0x58 ./autogen/sl_simple_button_instances.o
 .debug_loc     0x00000394       0x2c ./autogen/sl_simple_led_instances.o
 .debug_loc     0x000003c0      0x2ee ./gecko_sdk_4.3.0/hardware/board/src/sl_board_control_gpio.o
 .debug_loc     0x000006ae       0x2c ./gecko_sdk_4.3.0/hardware/board/src/sl_board_init.o
 .debug_loc     0x000006da      0x291 ./gecko_sdk_4.3.0/hardware/driver/configuration_over_swo/src/sl_cos.o
 .debug_loc     0x0000096b      0x370 ./gecko_sdk_4.3.0/hardware/driver/memlcd/src/memlcd_usart/sl_memlcd_spi.o
 .debug_loc     0x00000cdb      0x48e ./gecko_sdk_4.3.0/hardware/driver/memlcd/src/sl_memlcd.o
 .debug_loc     0x00001169       0x38 ./gecko_sdk_4.3.0/hardware/driver/memlcd/src/sl_memlcd_display.o
 .debug_loc     0x000011a1       0x90 ./gecko_sdk_4.3.0/hardware/driver/mx25_flash_shutdown/src/sl_mx25_flash_shutdown_usart/sl_mx25_flash_shutdown.o
 .debug_loc     0x00001231      0x869 ./gecko_sdk_4.3.0/hardware/driver/si70xx/src/sl_si70xx.o
 .debug_loc     0x00001a9a       0x8e ./gecko_sdk_4.3.0/platform/Device/SiliconLabs/ZGM23/Source/startup_zgm23.o
 .debug_loc     0x00001b28      0x1d9 ./gecko_sdk_4.3.0/platform/Device/SiliconLabs/ZGM23/Source/system_zgm23.o
 .debug_loc     0x00001d01       0x2a ./gecko_sdk_4.3.0/platform/common/src/sl_assert.o
 .debug_loc     0x00001d2b       0x9c ./gecko_sdk_4.3.0/platform/common/toolchain/src/sl_memory.o
 .debug_loc     0x00001dc7      0x11a ./gecko_sdk_4.3.0/platform/driver/button/src/sl_button.o
 .debug_loc     0x00001ee1      0x508 ./gecko_sdk_4.3.0/platform/driver/button/src/sl_simple_button.o
 .debug_loc     0x000023e9      0x24d ./gecko_sdk_4.3.0/platform/driver/debug/src/sl_debug_swo.o
 .debug_loc     0x00002636      0x271 ./gecko_sdk_4.3.0/platform/driver/i2cspm/src/sl_i2cspm.o
 .debug_loc     0x000028a7       0xb9 ./gecko_sdk_4.3.0/platform/driver/leddrv/src/sl_led.o
 .debug_loc     0x00002960      0x3e8 ./gecko_sdk_4.3.0/platform/driver/leddrv/src/sl_simple_led.o
 .debug_loc     0x00002d48      0x496 ./gecko_sdk_4.3.0/platform/emdrv/gpiointerrupt/src/gpiointerrupt.o
 .debug_loc     0x000031de     0x4568 ./gecko_sdk_4.3.0/platform/emlib/src/em_cmu.o
 .debug_loc     0x00007746      0x959 ./gecko_sdk_4.3.0/platform/emlib/src/em_core.o
 .debug_loc     0x0000809f      0x9ae ./gecko_sdk_4.3.0/platform/emlib/src/em_emu.o
 .debug_loc     0x00008a4d      0xb55 ./gecko_sdk_4.3.0/platform/emlib/src/em_gpio.o
 .debug_loc     0x000095a2      0xf6b ./gecko_sdk_4.3.0/platform/emlib/src/em_i2c.o
 .debug_loc     0x0000a50d      0xaf4 ./gecko_sdk_4.3.0/platform/emlib/src/em_prs.o
 .debug_loc     0x0000b001      0xa03 ./gecko_sdk_4.3.0/platform/emlib/src/em_usart.o
 .debug_loc     0x0000ba04      0xe17 ./gecko_sdk_4.3.0/platform/middleware/glib/dmd/display/dmd_memlcd.o
 .debug_loc     0x0000c81b      0xd39 ./gecko_sdk_4.3.0/platform/middleware/glib/glib/glib.o
 .debug_loc     0x0000d554      0x1f7 ./gecko_sdk_4.3.0/platform/middleware/glib/glib/glib_rectangle.o
 .debug_loc     0x0000d74b      0xa28 ./gecko_sdk_4.3.0/platform/middleware/glib/glib/glib_string.o
 .debug_loc     0x0000e173      0x4f5 ./gecko_sdk_4.3.0/platform/peripheral/src/peripheral_sysrtc.o
 .debug_loc     0x0000e668       0x2c ./gecko_sdk_4.3.0/platform/service/device_init/src/sl_device_init_dcdc_s2.o
 .debug_loc     0x0000e694       0x2c ./gecko_sdk_4.3.0/platform/service/device_init/src/sl_device_init_emu_s2.o
 .debug_loc     0x0000e6c0       0xba ./gecko_sdk_4.3.0/platform/service/device_init/src/sl_device_init_hfxo_s2.o
 .debug_loc     0x0000e77a       0x6f ./gecko_sdk_4.3.0/platform/service/device_init/src/sl_device_init_nvic.o
 .debug_loc     0x0000e7e9     0x18f8 ./gecko_sdk_4.3.0/platform/service/sleeptimer/src/sl_sleeptimer.o
 .debug_loc     0x000100e1      0x48b ./gecko_sdk_4.3.0/platform/service/sleeptimer/src/sl_sleeptimer_hal_sysrtc.o
 .debug_loc     0x0001056c       0x2c ./gecko_sdk_4.3.0/platform/service/system/src/sl_system_init.o
 .debug_loc     0x00010598      0x195 ./gecko_sdk_4.3.0/platform/service/udelay/src/sl_udelay.o
 .debug_loc     0x0001072d     0x56c7 ./gecko_sdk_4.3.0/util/third_party/freertos/cmsis/Source/cmsis_os2.o
 .debug_loc     0x00015df4       0xcf ./gecko_sdk_4.3.0/util/third_party/freertos/kernel/list.o
 .debug_loc     0x00015ec3     0x2079 ./gecko_sdk_4.3.0/util/third_party/freertos/kernel/queue.o
 .debug_loc     0x00017f3c     0x2b62 ./gecko_sdk_4.3.0/util/third_party/freertos/kernel/tasks.o
 .debug_loc     0x0001aa9e     0x1438 ./gecko_sdk_4.3.0/util/third_party/freertos/kernel/timers.o
 .debug_loc     0x0001bed6      0x32a ./gecko_sdk_4.3.0/util/third_party/freertos/kernel/portable/GCC/ARM_CM33_NTZ/non_secure/port.o
 .debug_loc     0x0001c200      0x49b ./gecko_sdk_4.3.0/util/third_party/freertos/kernel/portable/MemMang/heap_4.o

.debug_aranges  0x00000000     0x18d8
 .debug_aranges
                0x00000000       0x20 ./Handle_event/I2C_handle.o
 .debug_aranges
                0x00000020       0x28 ./Handle_event/TFT.o
 .debug_aranges
                0x00000048       0x20 ./Handle_event/blink.o
 .debug_aranges
                0x00000068       0x20 ./RTOS_test.o
 .debug_aranges
                0x00000088       0x30 ./app.o
 .debug_aranges
                0x000000b8       0x20 ./main.o
 .debug_aranges
                0x000000d8       0x20 ./autogen/sl_board_default_init.o
 .debug_aranges
                0x000000f8       0x20 ./autogen/sl_device_init_clocks.o
 .debug_aranges
                0x00000118       0x40 ./autogen/sl_event_handler.o
 .debug_aranges
                0x00000158       0x20 ./autogen/sl_i2cspm_init.o
 .debug_aranges
                0x00000178       0x28 ./autogen/sl_simple_button_instances.o
 .debug_aranges
                0x000001a0       0x20 ./autogen/sl_simple_led_instances.o
 .debug_aranges
                0x000001c0       0x70 ./gecko_sdk_4.3.0/hardware/board/src/sl_board_control_gpio.o
 .debug_aranges
                0x00000230       0x28 ./gecko_sdk_4.3.0/hardware/board/src/sl_board_init.o
 .debug_aranges
                0x00000258       0x38 ./gecko_sdk_4.3.0/hardware/driver/configuration_over_swo/src/sl_cos.o
 .debug_aranges
                0x00000290       0x40 ./gecko_sdk_4.3.0/hardware/driver/memlcd/src/memlcd_usart/sl_memlcd_spi.o
 .debug_aranges
                0x000002d0       0x58 ./gecko_sdk_4.3.0/hardware/driver/memlcd/src/sl_memlcd.o
 .debug_aranges
                0x00000328       0x20 ./gecko_sdk_4.3.0/hardware/driver/memlcd/src/sl_memlcd_display.o
 .debug_aranges
                0x00000348       0x30 ./gecko_sdk_4.3.0/hardware/driver/mx25_flash_shutdown/src/sl_mx25_flash_shutdown_usart/sl_mx25_flash_shutdown.o
 .debug_aranges
                0x00000378       0x60 ./gecko_sdk_4.3.0/hardware/driver/si70xx/src/sl_si70xx.o
 .debug_aranges
                0x000003d8       0x28 ./gecko_sdk_4.3.0/platform/Device/SiliconLabs/ZGM23/Source/startup_zgm23.o
 .debug_aranges
                0x00000400       0x90 ./gecko_sdk_4.3.0/platform/Device/SiliconLabs/ZGM23/Source/system_zgm23.o
 .debug_aranges
                0x00000490       0x20 ./gecko_sdk_4.3.0/platform/common/src/sl_assert.o
 .debug_aranges
                0x000004b0       0x30 ./gecko_sdk_4.3.0/platform/common/toolchain/src/sl_memory.o
 .debug_aranges
                0x000004e0       0x48 ./gecko_sdk_4.3.0/platform/driver/button/src/sl_button.o
 .debug_aranges
                0x00000528       0x50 ./gecko_sdk_4.3.0/platform/driver/button/src/sl_simple_button.o
 .debug_aranges
                0x00000578       0x48 ./gecko_sdk_4.3.0/platform/driver/debug/src/sl_debug_swo.o
 .debug_aranges
                0x000005c0       0x28 ./gecko_sdk_4.3.0/platform/driver/i2cspm/src/sl_i2cspm.o
 .debug_aranges
                0x000005e8       0x40 ./gecko_sdk_4.3.0/platform/driver/leddrv/src/sl_led.o
 .debug_aranges
                0x00000628       0x50 ./gecko_sdk_4.3.0/platform/driver/leddrv/src/sl_simple_led.o
 .debug_aranges
                0x00000678       0x48 ./gecko_sdk_4.3.0/platform/emdrv/gpiointerrupt/src/gpiointerrupt.o
 .debug_aranges
                0x000006c0      0x1f8 ./gecko_sdk_4.3.0/platform/emlib/src/em_cmu.o
 .debug_aranges
                0x000008b8       0xe8 ./gecko_sdk_4.3.0/platform/emlib/src/em_core.o
 .debug_aranges
                0x000009a0       0xf0 ./gecko_sdk_4.3.0/platform/emlib/src/em_emu.o
 .debug_aranges
                0x00000a90       0x68 ./gecko_sdk_4.3.0/platform/emlib/src/em_gpio.o
 .debug_aranges
                0x00000af8       0x50 ./gecko_sdk_4.3.0/platform/emlib/src/em_i2c.o
 .debug_aranges
                0x00000b48       0x68 ./gecko_sdk_4.3.0/platform/emlib/src/em_prs.o
 .debug_aranges
                0x00000bb0       0xb8 ./gecko_sdk_4.3.0/platform/emlib/src/em_usart.o
 .debug_aranges
                0x00000c68       0x80 ./gecko_sdk_4.3.0/platform/middleware/glib/dmd/display/dmd_memlcd.o
 .debug_aranges
                0x00000ce8       0x18 ./gecko_sdk_4.3.0/platform/middleware/glib/fonts/glib_font_narrow_6x8.o
 .debug_aranges
                0x00000d00       0x18 ./gecko_sdk_4.3.0/platform/middleware/glib/fonts/glib_font_normal_8x8.o
 .debug_aranges
                0x00000d18       0x88 ./gecko_sdk_4.3.0/platform/middleware/glib/glib/glib.o
 .debug_aranges
                0x00000da0       0x38 ./gecko_sdk_4.3.0/platform/middleware/glib/glib/glib_rectangle.o
 .debug_aranges
                0x00000dd8       0x38 ./gecko_sdk_4.3.0/platform/middleware/glib/glib/glib_string.o
 .debug_aranges
                0x00000e10       0x90 ./gecko_sdk_4.3.0/platform/peripheral/src/peripheral_sysrtc.o
 .debug_aranges
                0x00000ea0       0x20 ./gecko_sdk_4.3.0/platform/service/device_init/src/sl_device_init_dcdc_s2.o
 .debug_aranges
                0x00000ec0       0x20 ./gecko_sdk_4.3.0/platform/service/device_init/src/sl_device_init_emu_s2.o
 .debug_aranges
                0x00000ee0       0x20 ./gecko_sdk_4.3.0/platform/service/device_init/src/sl_device_init_hfxo_s2.o
 .debug_aranges
                0x00000f00       0x20 ./gecko_sdk_4.3.0/platform/service/device_init/src/sl_device_init_nvic.o
 .debug_aranges
                0x00000f20      0x110 ./gecko_sdk_4.3.0/platform/service/sleeptimer/src/sl_sleeptimer.o
 .debug_aranges
                0x00001030       0x80 ./gecko_sdk_4.3.0/platform/service/sleeptimer/src/sl_sleeptimer_hal_sysrtc.o
 .debug_aranges
                0x000010b0       0x20 ./gecko_sdk_4.3.0/platform/service/system/src/sl_system_init.o
 .debug_aranges
                0x000010d0       0x20 ./gecko_sdk_4.3.0/platform/service/system/src/sl_system_kernel.o
 .debug_aranges
                0x000010f0       0x20 ./gecko_sdk_4.3.0/platform/service/udelay/src/sl_udelay.o
 .debug_aranges
                0x00001110       0x20 ./gecko_sdk_4.3.0/platform/service/udelay/src/sl_udelay_armv6m_gcc.o
 .debug_aranges
                0x00001130      0x268 ./gecko_sdk_4.3.0/util/third_party/freertos/cmsis/Source/cmsis_os2.o
 .debug_aranges
                0x00001398       0x40 ./gecko_sdk_4.3.0/util/third_party/freertos/kernel/list.o
 .debug_aranges
                0x000013d8      0x138 ./gecko_sdk_4.3.0/util/third_party/freertos/kernel/queue.o
 .debug_aranges
                0x00001510      0x1e8 ./gecko_sdk_4.3.0/util/third_party/freertos/kernel/tasks.o
 .debug_aranges
                0x000016f8       0xc0 ./gecko_sdk_4.3.0/util/third_party/freertos/kernel/timers.o
 .debug_aranges
                0x000017b8       0x70 ./gecko_sdk_4.3.0/util/third_party/freertos/kernel/portable/GCC/ARM_CM33_NTZ/non_secure/port.o
 .debug_aranges
                0x00001828       0x60 ./gecko_sdk_4.3.0/util/third_party/freertos/kernel/portable/GCC/ARM_CM33_NTZ/non_secure/portasm.o
 .debug_aranges
                0x00001888       0x50 ./gecko_sdk_4.3.0/util/third_party/freertos/kernel/portable/MemMang/heap_4.o

.debug_ranges   0x00000000     0x2660
 .debug_ranges  0x00000000       0x10 ./Handle_event/I2C_handle.o
 .debug_ranges  0x00000010       0x30 ./Handle_event/TFT.o
 .debug_ranges  0x00000040       0x10 ./Handle_event/blink.o
 .debug_ranges  0x00000050       0x10 ./RTOS_test.o
 .debug_ranges  0x00000060       0x20 ./app.o
 .debug_ranges  0x00000080       0x10 ./main.o
 .debug_ranges  0x00000090       0x10 ./autogen/sl_board_default_init.o
 .debug_ranges  0x000000a0       0x10 ./autogen/sl_device_init_clocks.o
 .debug_ranges  0x000000b0       0x30 ./autogen/sl_event_handler.o
 .debug_ranges  0x000000e0       0x10 ./autogen/sl_i2cspm_init.o
 .debug_ranges  0x000000f0       0x18 ./autogen/sl_simple_button_instances.o
 .debug_ranges  0x00000108       0x10 ./autogen/sl_simple_led_instances.o
 .debug_ranges  0x00000118       0x60 ./gecko_sdk_4.3.0/hardware/board/src/sl_board_control_gpio.o
 .debug_ranges  0x00000178       0x18 ./gecko_sdk_4.3.0/hardware/board/src/sl_board_init.o
 .debug_ranges  0x00000190       0x40 ./gecko_sdk_4.3.0/hardware/driver/configuration_over_swo/src/sl_cos.o
 .debug_ranges  0x000001d0       0xc0 ./gecko_sdk_4.3.0/hardware/driver/memlcd/src/memlcd_usart/sl_memlcd_spi.o
 .debug_ranges  0x00000290       0xe8 ./gecko_sdk_4.3.0/hardware/driver/memlcd/src/sl_memlcd.o
 .debug_ranges  0x00000378       0x10 ./gecko_sdk_4.3.0/hardware/driver/memlcd/src/sl_memlcd_display.o
 .debug_ranges  0x00000388       0x20 ./gecko_sdk_4.3.0/hardware/driver/mx25_flash_shutdown/src/sl_mx25_flash_shutdown_usart/sl_mx25_flash_shutdown.o
 .debug_ranges  0x000003a8       0x90 ./gecko_sdk_4.3.0/hardware/driver/si70xx/src/sl_si70xx.o
 .debug_ranges  0x00000438       0x80 ./gecko_sdk_4.3.0/platform/Device/SiliconLabs/ZGM23/Source/startup_zgm23.o
 .debug_ranges  0x000004b8       0x98 ./gecko_sdk_4.3.0/platform/Device/SiliconLabs/ZGM23/Source/system_zgm23.o
 .debug_ranges  0x00000550       0x10 ./gecko_sdk_4.3.0/platform/common/src/sl_assert.o
 .debug_ranges  0x00000560       0x20 ./gecko_sdk_4.3.0/platform/common/toolchain/src/sl_memory.o
 .debug_ranges  0x00000580       0x38 ./gecko_sdk_4.3.0/platform/driver/button/src/sl_button.o
 .debug_ranges  0x000005b8       0x60 ./gecko_sdk_4.3.0/platform/driver/button/src/sl_simple_button.o
 .debug_ranges  0x00000618       0x50 ./gecko_sdk_4.3.0/platform/driver/debug/src/sl_debug_swo.o
 .debug_ranges  0x00000668       0x58 ./gecko_sdk_4.3.0/platform/driver/i2cspm/src/sl_i2cspm.o
 .debug_ranges  0x000006c0       0x30 ./gecko_sdk_4.3.0/platform/driver/leddrv/src/sl_led.o
 .debug_ranges  0x000006f0       0x70 ./gecko_sdk_4.3.0/platform/driver/leddrv/src/sl_simple_led.o
 .debug_ranges  0x00000760      0x150 ./gecko_sdk_4.3.0/platform/emdrv/gpiointerrupt/src/gpiointerrupt.o
 .debug_ranges  0x000008b0      0x398 ./gecko_sdk_4.3.0/platform/emlib/src/em_cmu.o
 .debug_ranges  0x00000c48      0x1a0 ./gecko_sdk_4.3.0/platform/emlib/src/em_core.o
 .debug_ranges  0x00000de8      0x258 ./gecko_sdk_4.3.0/platform/emlib/src/em_emu.o
 .debug_ranges  0x00001040       0x70 ./gecko_sdk_4.3.0/platform/emlib/src/em_gpio.o
 .debug_ranges  0x000010b0      0x178 ./gecko_sdk_4.3.0/platform/emlib/src/em_i2c.o
 .debug_ranges  0x00001228       0xa0 ./gecko_sdk_4.3.0/platform/emlib/src/em_prs.o
 .debug_ranges  0x000012c8       0xa8 ./gecko_sdk_4.3.0/platform/emlib/src/em_usart.o
 .debug_ranges  0x00001370       0x88 ./gecko_sdk_4.3.0/platform/middleware/glib/dmd/display/dmd_memlcd.o
 .debug_ranges  0x000013f8       0xa8 ./gecko_sdk_4.3.0/platform/middleware/glib/glib/glib.o
 .debug_ranges  0x000014a0       0x28 ./gecko_sdk_4.3.0/platform/middleware/glib/glib/glib_rectangle.o
 .debug_ranges  0x000014c8       0x58 ./gecko_sdk_4.3.0/platform/middleware/glib/glib/glib_string.o
 .debug_ranges  0x00001520       0x80 ./gecko_sdk_4.3.0/platform/peripheral/src/peripheral_sysrtc.o
 .debug_ranges  0x000015a0       0x10 ./gecko_sdk_4.3.0/platform/service/device_init/src/sl_device_init_dcdc_s2.o
 .debug_ranges  0x000015b0       0x10 ./gecko_sdk_4.3.0/platform/service/device_init/src/sl_device_init_emu_s2.o
 .debug_ranges  0x000015c0       0x10 ./gecko_sdk_4.3.0/platform/service/device_init/src/sl_device_init_hfxo_s2.o
 .debug_ranges  0x000015d0       0x48 ./gecko_sdk_4.3.0/platform/service/device_init/src/sl_device_init_nvic.o
 .debug_ranges  0x00001618      0x1b8 ./gecko_sdk_4.3.0/platform/service/sleeptimer/src/sl_sleeptimer.o
 .debug_ranges  0x000017d0      0x110 ./gecko_sdk_4.3.0/platform/service/sleeptimer/src/sl_sleeptimer_hal_sysrtc.o
 .debug_ranges  0x000018e0       0x10 ./gecko_sdk_4.3.0/platform/service/system/src/sl_system_init.o
 .debug_ranges  0x000018f0       0x10 ./gecko_sdk_4.3.0/platform/service/system/src/sl_system_kernel.o
 .debug_ranges  0x00001900       0x28 ./gecko_sdk_4.3.0/platform/service/udelay/src/sl_udelay.o
 .debug_ranges  0x00001928      0x408 ./gecko_sdk_4.3.0/util/third_party/freertos/cmsis/Source/cmsis_os2.o
 .debug_ranges  0x00001d30       0x30 ./gecko_sdk_4.3.0/util/third_party/freertos/kernel/list.o
 .debug_ranges  0x00001d60      0x290 ./gecko_sdk_4.3.0/util/third_party/freertos/kernel/queue.o
 .debug_ranges  0x00001ff0      0x3c0 ./gecko_sdk_4.3.0/util/third_party/freertos/kernel/tasks.o
 .debug_ranges  0x000023b0      0x1c0 ./gecko_sdk_4.3.0/util/third_party/freertos/kernel/timers.o
 .debug_ranges  0x00002570       0x60 ./gecko_sdk_4.3.0/util/third_party/freertos/kernel/portable/GCC/ARM_CM33_NTZ/non_secure/port.o
 .debug_ranges  0x000025d0       0x50 ./gecko_sdk_4.3.0/util/third_party/freertos/kernel/portable/GCC/ARM_CM33_NTZ/non_secure/portasm.o
 .debug_ranges  0x00002620       0x40 ./gecko_sdk_4.3.0/util/third_party/freertos/kernel/portable/MemMang/heap_4.o

.debug_line     0x00000000    0x1c453
 .debug_line    0x00000000      0x3bb ./Handle_event/I2C_handle.o
 .debug_line    0x000003bb      0x597 ./Handle_event/TFT.o
 .debug_line    0x00000952      0x3af ./Handle_event/blink.o
 .debug_line    0x00000d01      0x2cf ./RTOS_test.o
 .debug_line    0x00000fd0      0x403 ./app.o
 .debug_line    0x000013d3       0xc7 ./main.o
 .debug_line    0x0000149a       0xaf ./autogen/sl_board_default_init.o
 .debug_line    0x00001549      0x293 ./autogen/sl_device_init_clocks.o
 .debug_line    0x000017dc      0x697 ./autogen/sl_event_handler.o
 .debug_line    0x00001e73      0x273 ./autogen/sl_i2cspm_init.o
 .debug_line    0x000020e6      0x285 ./autogen/sl_simple_button_instances.o
 .debug_line    0x0000236b      0x25f ./autogen/sl_simple_led_instances.o
 .debug_line    0x000025ca      0x471 ./gecko_sdk_4.3.0/hardware/board/src/sl_board_control_gpio.o
 .debug_line    0x00002a3b      0x1dd ./gecko_sdk_4.3.0/hardware/board/src/sl_board_init.o
 .debug_line    0x00002c18      0x465 ./gecko_sdk_4.3.0/hardware/driver/configuration_over_swo/src/sl_cos.o
 .debug_line    0x0000307d      0x5b4 ./gecko_sdk_4.3.0/hardware/driver/memlcd/src/memlcd_usart/sl_memlcd_spi.o
 .debug_line    0x00003631      0x725 ./gecko_sdk_4.3.0/hardware/driver/memlcd/src/sl_memlcd.o
 .debug_line    0x00003d56      0x24b ./gecko_sdk_4.3.0/hardware/driver/memlcd/src/sl_memlcd_display.o
 .debug_line    0x00003fa1      0x3ff ./gecko_sdk_4.3.0/hardware/driver/mx25_flash_shutdown/src/sl_mx25_flash_shutdown_usart/sl_mx25_flash_shutdown.o
 .debug_line    0x000043a0      0x7a4 ./gecko_sdk_4.3.0/hardware/driver/si70xx/src/sl_si70xx.o
 .debug_line    0x00004b44      0x2f3 ./gecko_sdk_4.3.0/platform/Device/SiliconLabs/ZGM23/Source/startup_zgm23.o
 .debug_line    0x00004e37      0x5b3 ./gecko_sdk_4.3.0/platform/Device/SiliconLabs/ZGM23/Source/system_zgm23.o
 .debug_line    0x000053ea       0xa1 ./gecko_sdk_4.3.0/platform/common/src/sl_assert.o
 .debug_line    0x0000548b      0x2d5 ./gecko_sdk_4.3.0/platform/common/toolchain/src/sl_memory.o
 .debug_line    0x00005760      0x2f7 ./gecko_sdk_4.3.0/platform/driver/button/src/sl_button.o
 .debug_line    0x00005a57      0x5d3 ./gecko_sdk_4.3.0/platform/driver/button/src/sl_simple_button.o
 .debug_line    0x0000602a      0x5ab ./gecko_sdk_4.3.0/platform/driver/debug/src/sl_debug_swo.o
 .debug_line    0x000065d5      0x543 ./gecko_sdk_4.3.0/platform/driver/i2cspm/src/sl_i2cspm.o
 .debug_line    0x00006b18      0x291 ./gecko_sdk_4.3.0/platform/driver/leddrv/src/sl_led.o
 .debug_line    0x00006da9      0x51c ./gecko_sdk_4.3.0/platform/driver/leddrv/src/sl_simple_led.o
 .debug_line    0x000072c5      0x69b ./gecko_sdk_4.3.0/platform/emdrv/gpiointerrupt/src/gpiointerrupt.o
 .debug_line    0x00007960     0x302a ./gecko_sdk_4.3.0/platform/emlib/src/em_cmu.o
 .debug_line    0x0000a98a      0xa6f ./gecko_sdk_4.3.0/platform/emlib/src/em_core.o
 .debug_line    0x0000b3f9      0xe16 ./gecko_sdk_4.3.0/platform/emlib/src/em_emu.o
 .debug_line    0x0000c20f      0x73a ./gecko_sdk_4.3.0/platform/emlib/src/em_gpio.o
 .debug_line    0x0000c949      0xbc2 ./gecko_sdk_4.3.0/platform/emlib/src/em_i2c.o
 .debug_line    0x0000d50b      0x6bb ./gecko_sdk_4.3.0/platform/emlib/src/em_prs.o
 .debug_line    0x0000dbc6      0xbe2 ./gecko_sdk_4.3.0/platform/emlib/src/em_usart.o
 .debug_line    0x0000e7a8      0xa89 ./gecko_sdk_4.3.0/platform/middleware/glib/dmd/display/dmd_memlcd.o
 .debug_line    0x0000f231      0x1cf ./gecko_sdk_4.3.0/platform/middleware/glib/fonts/glib_font_narrow_6x8.o
 .debug_line    0x0000f400      0x1cf ./gecko_sdk_4.3.0/platform/middleware/glib/fonts/glib_font_normal_8x8.o
 .debug_line    0x0000f5cf      0x63e ./gecko_sdk_4.3.0/platform/middleware/glib/glib/glib.o
 .debug_line    0x0000fc0d      0x473 ./gecko_sdk_4.3.0/platform/middleware/glib/glib/glib_rectangle.o
 .debug_line    0x00010080      0x637 ./gecko_sdk_4.3.0/platform/middleware/glib/glib/glib_string.o
 .debug_line    0x000106b7      0x6d4 ./gecko_sdk_4.3.0/platform/peripheral/src/peripheral_sysrtc.o
 .debug_line    0x00010d8b      0x246 ./gecko_sdk_4.3.0/platform/service/device_init/src/sl_device_init_dcdc_s2.o
 .debug_line    0x00010fd1      0x2be ./gecko_sdk_4.3.0/platform/service/device_init/src/sl_device_init_emu_s2.o
 .debug_line    0x0001128f      0x318 ./gecko_sdk_4.3.0/platform/service/device_init/src/sl_device_init_hfxo_s2.o
 .debug_line    0x000115a7      0x30f ./gecko_sdk_4.3.0/platform/service/device_init/src/sl_device_init_nvic.o
 .debug_line    0x000118b6     0x10f7 ./gecko_sdk_4.3.0/platform/service/sleeptimer/src/sl_sleeptimer.o
 .debug_line    0x000129ad      0x753 ./gecko_sdk_4.3.0/platform/service/sleeptimer/src/sl_sleeptimer_hal_sysrtc.o
 .debug_line    0x00013100       0xe5 ./gecko_sdk_4.3.0/platform/service/system/src/sl_system_init.o
 .debug_line    0x000131e5       0xdc ./gecko_sdk_4.3.0/platform/service/system/src/sl_system_kernel.o
 .debug_line    0x000132c1      0x2be ./gecko_sdk_4.3.0/platform/service/udelay/src/sl_udelay.o
 .debug_line    0x0001357f       0x94 ./gecko_sdk_4.3.0/platform/service/udelay/src/sl_udelay_armv6m_gcc.o
 .debug_line    0x00013613     0x3409 ./gecko_sdk_4.3.0/util/third_party/freertos/cmsis/Source/cmsis_os2.o
 .debug_line    0x00016a1c      0x409 ./gecko_sdk_4.3.0/util/third_party/freertos/kernel/list.o
 .debug_line    0x00016e25     0x176a ./gecko_sdk_4.3.0/util/third_party/freertos/kernel/queue.o
 .debug_line    0x0001858f     0x22ef ./gecko_sdk_4.3.0/util/third_party/freertos/kernel/tasks.o
 .debug_line    0x0001a87e      0xc7e ./gecko_sdk_4.3.0/util/third_party/freertos/kernel/timers.o
 .debug_line    0x0001b4fc      0x575 ./gecko_sdk_4.3.0/util/third_party/freertos/kernel/portable/GCC/ARM_CM33_NTZ/non_secure/port.o
 .debug_line    0x0001ba71      0x282 ./gecko_sdk_4.3.0/util/third_party/freertos/kernel/portable/GCC/ARM_CM33_NTZ/non_secure/portasm.o
 .debug_line    0x0001bcf3      0x760 ./gecko_sdk_4.3.0/util/third_party/freertos/kernel/portable/MemMang/heap_4.o

.debug_str      0x00000000    0x11654
 .debug_str     0x00000000      0x477 ./Handle_event/I2C_handle.o
                                0x59e (size before relaxing)
 .debug_str     0x00000477      0x304 ./Handle_event/TFT.o
                                0x5d3 (size before relaxing)
 .debug_str     0x0000077b       0xcd ./Handle_event/blink.o
                                0x345 (size before relaxing)
 .debug_str     0x00000848       0x95 ./RTOS_test.o
                                0x333 (size before relaxing)
 .debug_str     0x000008dd       0xbb ./app.o
                                0x3b6 (size before relaxing)
 .debug_str     0x00000998       0x35 ./main.o
                                0x172 (size before relaxing)
 .debug_str     0x000009cd       0x4f ./autogen/sl_board_default_init.o
                                0x207 (size before relaxing)
 .debug_str     0x00000a1c      0xb92 ./autogen/sl_device_init_clocks.o
                                0xe87 (size before relaxing)
 .debug_str     0x000015ae      0x299 ./autogen/sl_event_handler.o
                                0xfba (size before relaxing)
 .debug_str     0x00001847      0x5c1 ./autogen/sl_i2cspm_init.o
                                0xa94 (size before relaxing)
 .debug_str     0x00001e08       0xf2 ./autogen/sl_simple_button_instances.o
                                0x3e2 (size before relaxing)
 .debug_str     0x00001efa       0xa0 ./autogen/sl_simple_led_instances.o
                                0x35c (size before relaxing)
 .debug_str     0x00001f9a      0x41f ./gecko_sdk_4.3.0/hardware/board/src/sl_board_control_gpio.o
                                0x6a6 (size before relaxing)
 .debug_str     0x000023b9       0x69 ./gecko_sdk_4.3.0/hardware/board/src/sl_board_init.o
                                0x7c3 (size before relaxing)
 .debug_str     0x00002422      0x1e3 ./gecko_sdk_4.3.0/hardware/driver/configuration_over_swo/src/sl_cos.o
                                0x407 (size before relaxing)
 .debug_str     0x00002605     0x11b4 ./gecko_sdk_4.3.0/hardware/driver/memlcd/src/memlcd_usart/sl_memlcd_spi.o
                               0x1f4c (size before relaxing)
 .debug_str     0x000037b9      0x2da ./gecko_sdk_4.3.0/hardware/driver/memlcd/src/sl_memlcd.o
                               0x1fc6 (size before relaxing)
 .debug_str     0x00003a93       0x74 ./gecko_sdk_4.3.0/hardware/driver/memlcd/src/sl_memlcd_display.o
                                0x2d0 (size before relaxing)
 .debug_str     0x00003b07       0xba ./gecko_sdk_4.3.0/hardware/driver/mx25_flash_shutdown/src/sl_mx25_flash_shutdown_usart/sl_mx25_flash_shutdown.o
                               0x1ed3 (size before relaxing)
 .debug_str     0x00003bc1      0x2fa ./gecko_sdk_4.3.0/hardware/driver/si70xx/src/sl_si70xx.o
                                0x81e (size before relaxing)
 .debug_str     0x00003ebb      0x15d ./gecko_sdk_4.3.0/platform/Device/SiliconLabs/ZGM23/Source/startup_zgm23.o
                                0x330 (size before relaxing)
 .debug_str     0x00004018      0xaa3 ./gecko_sdk_4.3.0/platform/Device/SiliconLabs/ZGM23/Source/system_zgm23.o
                               0x17e2 (size before relaxing)
 .debug_str     0x00004abb       0x59 ./gecko_sdk_4.3.0/platform/common/src/sl_assert.o
                                0x19c (size before relaxing)
 .debug_str     0x00004b14       0xee ./gecko_sdk_4.3.0/platform/common/toolchain/src/sl_memory.o
                                0x2d6 (size before relaxing)
 .debug_str     0x00004c02       0x79 ./gecko_sdk_4.3.0/platform/driver/button/src/sl_button.o
                                0x308 (size before relaxing)
 .debug_str     0x00004c7b      0x1f3 ./gecko_sdk_4.3.0/platform/driver/button/src/sl_simple_button.o
                               0x1a37 (size before relaxing)
 .debug_str     0x00004e6e      0x34d ./gecko_sdk_4.3.0/platform/driver/debug/src/sl_debug_swo.o
                               0x1b38 (size before relaxing)
 .debug_str     0x000051bb       0xac ./gecko_sdk_4.3.0/platform/driver/i2cspm/src/sl_i2cspm.o
                               0x1c30 (size before relaxing)
 .debug_str     0x00005267       0x7e ./gecko_sdk_4.3.0/platform/driver/leddrv/src/sl_led.o
                                0x2d9 (size before relaxing)
 .debug_str     0x000052e5       0xd6 ./gecko_sdk_4.3.0/platform/driver/leddrv/src/sl_simple_led.o
                               0x18d6 (size before relaxing)
 .debug_str     0x000053bb      0x1ca ./gecko_sdk_4.3.0/platform/emdrv/gpiointerrupt/src/gpiointerrupt.o
                               0x181b (size before relaxing)
 .debug_str     0x00005585     0x4068 ./gecko_sdk_4.3.0/platform/emlib/src/em_cmu.o
                               0x643c (size before relaxing)
 .debug_str     0x000095ed      0x2f6 ./gecko_sdk_4.3.0/platform/emlib/src/em_core.o
                                0xb46 (size before relaxing)
 .debug_str     0x000098e3      0xc5b ./gecko_sdk_4.3.0/platform/emlib/src/em_emu.o
                               0x2364 (size before relaxing)
 .debug_str     0x0000a53e       0xee ./gecko_sdk_4.3.0/platform/emlib/src/em_gpio.o
                               0x17a4 (size before relaxing)
 .debug_str     0x0000a62c      0x1fc ./gecko_sdk_4.3.0/platform/emlib/src/em_i2c.o
                                0xd61 (size before relaxing)
 .debug_str     0x0000a828     0x1713 ./gecko_sdk_4.3.0/platform/emlib/src/em_prs.o
                               0x4ce9 (size before relaxing)
 .debug_str     0x0000bf3b      0x571 ./gecko_sdk_4.3.0/platform/emlib/src/em_usart.o
                               0x4656 (size before relaxing)
 .debug_str     0x0000c4ac      0x270 ./gecko_sdk_4.3.0/platform/middleware/glib/dmd/display/dmd_memlcd.o
                                0x5a4 (size before relaxing)
 .debug_str     0x0000c71c       0x7e ./gecko_sdk_4.3.0/platform/middleware/glib/fonts/glib_font_narrow_6x8.o
                                0x348 (size before relaxing)
 .debug_str     0x0000c79a       0x91 ./gecko_sdk_4.3.0/platform/middleware/glib/fonts/glib_font_normal_8x8.o
                                0x348 (size before relaxing)
 .debug_str     0x0000c82b      0x1ab ./gecko_sdk_4.3.0/platform/middleware/glib/glib/glib.o
                                0x63f (size before relaxing)
 .debug_str     0x0000c9d6       0xc3 ./gecko_sdk_4.3.0/platform/middleware/glib/glib/glib_rectangle.o
                                0x547 (size before relaxing)
 .debug_str     0x0000ca99      0x118 ./gecko_sdk_4.3.0/platform/middleware/glib/glib/glib_string.o
                                0x5b9 (size before relaxing)
 .debug_str     0x0000cbb1      0x6e2 ./gecko_sdk_4.3.0/platform/peripheral/src/peripheral_sysrtc.o
                                0xb46 (size before relaxing)
 .debug_str     0x0000d293       0x69 ./gecko_sdk_4.3.0/platform/service/device_init/src/sl_device_init_dcdc_s2.o
                                0x903 (size before relaxing)
 .debug_str     0x0000d2fc       0x71 ./gecko_sdk_4.3.0/platform/service/device_init/src/sl_device_init_emu_s2.o
                                0x95a (size before relaxing)
 .debug_str     0x0000d36d      0x51f ./gecko_sdk_4.3.0/platform/service/device_init/src/sl_device_init_hfxo_s2.o
                                0xbf5 (size before relaxing)
 .debug_str     0x0000d88c       0x79 ./gecko_sdk_4.3.0/platform/service/device_init/src/sl_device_init_nvic.o
                                0x841 (size before relaxing)
 .debug_str     0x0000d905      0x6cc ./gecko_sdk_4.3.0/platform/service/sleeptimer/src/sl_sleeptimer.o
                                0xf2c (size before relaxing)
 .debug_str     0x0000dfd1      0x147 ./gecko_sdk_4.3.0/platform/service/sleeptimer/src/sl_sleeptimer_hal_sysrtc.o
                               0x2b15 (size before relaxing)
 .debug_str     0x0000e118       0x5c ./gecko_sdk_4.3.0/platform/service/system/src/sl_system_init.o
                                0x1f2 (size before relaxing)
 .debug_str     0x0000e174       0x5e ./gecko_sdk_4.3.0/platform/service/system/src/sl_system_kernel.o
                                0x1b9 (size before relaxing)
 .debug_str     0x0000e1d2       0x7f ./gecko_sdk_4.3.0/platform/service/udelay/src/sl_udelay.o
                                0x28c (size before relaxing)
 .debug_str     0x0000e251       0x70 ./gecko_sdk_4.3.0/platform/service/udelay/src/sl_udelay_armv6m_gcc.o
                                 0xb4 (size before relaxing)
 .debug_str     0x0000e2c1     0x17bf ./gecko_sdk_4.3.0/util/third_party/freertos/cmsis/Source/cmsis_os2.o
                               0x21ac (size before relaxing)
 .debug_str     0x0000fa80      0x15e ./gecko_sdk_4.3.0/util/third_party/freertos/kernel/list.o
                                0x367 (size before relaxing)
 .debug_str     0x0000fbde      0x63e ./gecko_sdk_4.3.0/util/third_party/freertos/kernel/queue.o
                                0xd26 (size before relaxing)
 .debug_str     0x0001021c      0x9f3 ./gecko_sdk_4.3.0/util/third_party/freertos/kernel/tasks.o
                               0x13ab (size before relaxing)
 .debug_str     0x00010c0f      0x519 ./gecko_sdk_4.3.0/util/third_party/freertos/kernel/timers.o
                                0xca3 (size before relaxing)
 .debug_str     0x00011128      0x17d ./gecko_sdk_4.3.0/util/third_party/freertos/kernel/portable/GCC/ARM_CM33_NTZ/non_secure/port.o
                                0x48f (size before relaxing)
 .debug_str     0x000112a5       0xcf ./gecko_sdk_4.3.0/util/third_party/freertos/kernel/portable/GCC/ARM_CM33_NTZ/non_secure/portasm.o
                                0x2f8 (size before relaxing)
 .debug_str     0x00011374      0x2e0 ./gecko_sdk_4.3.0/util/third_party/freertos/kernel/portable/MemMang/heap_4.o
                                0x560 (size before relaxing)

.debug_frame    0x00000000     0x4720
 .debug_frame   0x00000000       0x2c ./Handle_event/I2C_handle.o
 .debug_frame   0x0000002c       0x60 ./Handle_event/TFT.o
 .debug_frame   0x0000008c       0x2c ./Handle_event/blink.o
 .debug_frame   0x000000b8       0x2c ./RTOS_test.o
 .debug_frame   0x000000e4       0x5c ./app.o
 .debug_frame   0x00000140       0x28 ./main.o
 .debug_frame   0x00000168       0x20 ./autogen/sl_board_default_init.o
 .debug_frame   0x00000188       0x28 ./autogen/sl_device_init_clocks.o
 .debug_frame   0x000001b0       0x94 ./autogen/sl_event_handler.o
 .debug_frame   0x00000244       0x2c ./autogen/sl_i2cspm_init.o
 .debug_frame   0x00000270       0x48 ./autogen/sl_simple_button_instances.o
 .debug_frame   0x000002b8       0x2c ./autogen/sl_simple_led_instances.o
 .debug_frame   0x000002e4      0x110 ./gecko_sdk_4.3.0/hardware/board/src/sl_board_control_gpio.o
 .debug_frame   0x000003f4       0x3c ./gecko_sdk_4.3.0/hardware/board/src/sl_board_init.o
 .debug_frame   0x00000430       0x78 ./gecko_sdk_4.3.0/hardware/driver/configuration_over_swo/src/sl_cos.o
 .debug_frame   0x000004a8       0x94 ./gecko_sdk_4.3.0/hardware/driver/memlcd/src/memlcd_usart/sl_memlcd_spi.o
 .debug_frame   0x0000053c       0xdc ./gecko_sdk_4.3.0/hardware/driver/memlcd/src/sl_memlcd.o
 .debug_frame   0x00000618       0x30 ./gecko_sdk_4.3.0/hardware/driver/memlcd/src/sl_memlcd_display.o
 .debug_frame   0x00000648       0x54 ./gecko_sdk_4.3.0/hardware/driver/mx25_flash_shutdown/src/sl_mx25_flash_shutdown_usart/sl_mx25_flash_shutdown.o
 .debug_frame   0x0000069c      0x130 ./gecko_sdk_4.3.0/hardware/driver/si70xx/src/sl_si70xx.o
 .debug_frame   0x000007cc       0x38 ./gecko_sdk_4.3.0/platform/Device/SiliconLabs/ZGM23/Source/startup_zgm23.o
 .debug_frame   0x00000804      0x110 ./gecko_sdk_4.3.0/platform/Device/SiliconLabs/ZGM23/Source/system_zgm23.o
 .debug_frame   0x00000914       0x20 ./gecko_sdk_4.3.0/platform/common/src/sl_assert.o
 .debug_frame   0x00000934       0x40 ./gecko_sdk_4.3.0/platform/common/toolchain/src/sl_memory.o
 .debug_frame   0x00000974       0x70 ./gecko_sdk_4.3.0/platform/driver/button/src/sl_button.o
 .debug_frame   0x000009e4       0xc4 ./gecko_sdk_4.3.0/platform/driver/button/src/sl_simple_button.o
 .debug_frame   0x00000aa8       0x9c ./gecko_sdk_4.3.0/platform/driver/debug/src/sl_debug_swo.o
 .debug_frame   0x00000b44       0x68 ./gecko_sdk_4.3.0/platform/driver/i2cspm/src/sl_i2cspm.o
 .debug_frame   0x00000bac       0x60 ./gecko_sdk_4.3.0/platform/driver/leddrv/src/sl_led.o
 .debug_frame   0x00000c0c       0xb8 ./gecko_sdk_4.3.0/platform/driver/leddrv/src/sl_simple_led.o
 .debug_frame   0x00000cc4       0xa8 ./gecko_sdk_4.3.0/platform/emdrv/gpiointerrupt/src/gpiointerrupt.o
 .debug_frame   0x00000d6c      0x65c ./gecko_sdk_4.3.0/platform/emlib/src/em_cmu.o
 .debug_frame   0x000013c8      0x254 ./gecko_sdk_4.3.0/platform/emlib/src/em_core.o
 .debug_frame   0x0000161c      0x304 ./gecko_sdk_4.3.0/platform/emlib/src/em_emu.o
 .debug_frame   0x00001920      0x16c ./gecko_sdk_4.3.0/platform/emlib/src/em_gpio.o
 .debug_frame   0x00001a8c       0xf4 ./gecko_sdk_4.3.0/platform/emlib/src/em_i2c.o
 .debug_frame   0x00001b80      0x108 ./gecko_sdk_4.3.0/platform/emlib/src/em_prs.o
 .debug_frame   0x00001c88      0x1ec ./gecko_sdk_4.3.0/platform/emlib/src/em_usart.o
 .debug_frame   0x00001e74      0x158 ./gecko_sdk_4.3.0/platform/middleware/glib/dmd/display/dmd_memlcd.o
 .debug_frame   0x00001fcc      0x1ac ./gecko_sdk_4.3.0/platform/middleware/glib/glib/glib.o
 .debug_frame   0x00002178       0x74 ./gecko_sdk_4.3.0/platform/middleware/glib/glib/glib_rectangle.o
 .debug_frame   0x000021ec       0xb8 ./gecko_sdk_4.3.0/platform/middleware/glib/glib/glib_string.o
 .debug_frame   0x000022a4      0x130 ./gecko_sdk_4.3.0/platform/peripheral/src/peripheral_sysrtc.o
 .debug_frame   0x000023d4       0x28 ./gecko_sdk_4.3.0/platform/service/device_init/src/sl_device_init_dcdc_s2.o
 .debug_frame   0x000023fc       0x2c ./gecko_sdk_4.3.0/platform/service/device_init/src/sl_device_init_emu_s2.o
 .debug_frame   0x00002428       0x34 ./gecko_sdk_4.3.0/platform/service/device_init/src/sl_device_init_hfxo_s2.o
 .debug_frame   0x0000245c       0x28 ./gecko_sdk_4.3.0/platform/service/device_init/src/sl_device_init_nvic.o
 .debug_frame   0x00002484      0x390 ./gecko_sdk_4.3.0/platform/service/sleeptimer/src/sl_sleeptimer.o
 .debug_frame   0x00002814      0x130 ./gecko_sdk_4.3.0/platform/service/sleeptimer/src/sl_sleeptimer_hal_sysrtc.o
 .debug_frame   0x00002944       0x2c ./gecko_sdk_4.3.0/platform/service/system/src/sl_system_init.o
 .debug_frame   0x00002970       0x20 ./gecko_sdk_4.3.0/platform/service/system/src/sl_system_kernel.o
 .debug_frame   0x00002990       0x38 ./gecko_sdk_4.3.0/platform/service/udelay/src/sl_udelay.o
 .debug_frame   0x000029c8      0x790 ./gecko_sdk_4.3.0/util/third_party/freertos/cmsis/Source/cmsis_os2.o
 .debug_frame   0x00003158       0x6c ./gecko_sdk_4.3.0/util/third_party/freertos/kernel/list.o
 .debug_frame   0x000031c4      0x428 ./gecko_sdk_4.3.0/util/third_party/freertos/kernel/queue.o
 .debug_frame   0x000035ec      0x71c ./gecko_sdk_4.3.0/util/third_party/freertos/kernel/tasks.o
 .debug_frame   0x00003d08      0x298 ./gecko_sdk_4.3.0/util/third_party/freertos/kernel/timers.o
 .debug_frame   0x00003fa0       0xfc ./gecko_sdk_4.3.0/util/third_party/freertos/kernel/portable/GCC/ARM_CM33_NTZ/non_secure/port.o
 .debug_frame   0x0000409c       0xa0 ./gecko_sdk_4.3.0/util/third_party/freertos/kernel/portable/GCC/ARM_CM33_NTZ/non_secure/portasm.o
 .debug_frame   0x0000413c       0xd0 ./gecko_sdk_4.3.0/util/third_party/freertos/kernel/portable/MemMang/heap_4.o
 .debug_frame   0x0000420c       0x2c c:/siliconlabs/simplicitystudio/v5/developer/toolchains/gnu_arm/10.3_2021.10/bin/../lib/gcc/arm-none-eabi/10.3.1/thumb/v8-m.main+fp/hard\libgcc.a(_aeabi_uldivmod.o)
 .debug_frame   0x00004238       0x38 c:/siliconlabs/simplicitystudio/v5/developer/toolchains/gnu_arm/10.3_2021.10/bin/../lib/gcc/arm-none-eabi/10.3.1/thumb/v8-m.main+fp/hard\libgcc.a(_udivmoddi4.o)
 .debug_frame   0x00004270       0x28 c:/siliconlabs/simplicitystudio/v5/developer/toolchains/gnu_arm/10.3_2021.10/bin/../lib/gcc/arm-none-eabi/10.3.1/../../../../arm-none-eabi/lib/thumb/v8-m.main+fp/hard\libc_nano.a(lib_a-exit.o)
 .debug_frame   0x00004298       0x2c c:/siliconlabs/simplicitystudio/v5/developer/toolchains/gnu_arm/10.3_2021.10/bin/../lib/gcc/arm-none-eabi/10.3.1/../../../../arm-none-eabi/lib/thumb/v8-m.main+fp/hard\libc_nano.a(lib_a-init.o)
 .debug_frame   0x000042c4       0x28 c:/siliconlabs/simplicitystudio/v5/developer/toolchains/gnu_arm/10.3_2021.10/bin/../lib/gcc/arm-none-eabi/10.3.1/../../../../arm-none-eabi/lib/thumb/v8-m.main+fp/hard\libc_nano.a(lib_a-memcpy-stub.o)
 .debug_frame   0x000042ec       0x20 c:/siliconlabs/simplicitystudio/v5/developer/toolchains/gnu_arm/10.3_2021.10/bin/../lib/gcc/arm-none-eabi/10.3.1/../../../../arm-none-eabi/lib/thumb/v8-m.main+fp/hard\libc_nano.a(lib_a-memset.o)
 .debug_frame   0x0000430c       0x6c c:/siliconlabs/simplicitystudio/v5/developer/toolchains/gnu_arm/10.3_2021.10/bin/../lib/gcc/arm-none-eabi/10.3.1/../../../../arm-none-eabi/lib/thumb/v8-m.main+fp/hard\libc_nano.a(lib_a-sprintf.o)
 .debug_frame   0x00004378       0x90 c:/siliconlabs/simplicitystudio/v5/developer/toolchains/gnu_arm/10.3_2021.10/bin/../lib/gcc/arm-none-eabi/10.3.1/../../../../arm-none-eabi/lib/thumb/v8-m.main+fp/hard\libc_nano.a(lib_a-nano-svfprintf.o)
 .debug_frame   0x00004408       0x60 c:/siliconlabs/simplicitystudio/v5/developer/toolchains/gnu_arm/10.3_2021.10/bin/../lib/gcc/arm-none-eabi/10.3.1/../../../../arm-none-eabi/lib/thumb/v8-m.main+fp/hard\libc_nano.a(lib_a-nano-vfprintf_i.o)
 .debug_frame   0x00004468       0x28 c:/siliconlabs/simplicitystudio/v5/developer/toolchains/gnu_arm/10.3_2021.10/bin/../lib/gcc/arm-none-eabi/10.3.1/../../../../arm-none-eabi/lib/thumb/v8-m.main+fp/hard\libc_nano.a(lib_a-memchr-stub.o)
 .debug_frame   0x00004490       0x28 c:/siliconlabs/simplicitystudio/v5/developer/toolchains/gnu_arm/10.3_2021.10/bin/../lib/gcc/arm-none-eabi/10.3.1/../../../../arm-none-eabi/lib/thumb/v8-m.main+fp/hard\libc_nano.a(lib_a-memmove.o)
 .debug_frame   0x000044b8       0x38 c:/siliconlabs/simplicitystudio/v5/developer/toolchains/gnu_arm/10.3_2021.10/bin/../lib/gcc/arm-none-eabi/10.3.1/../../../../arm-none-eabi/lib/thumb/v8-m.main+fp/hard\libc_nano.a(lib_a-nano-freer.o)
 .debug_frame   0x000044f0       0x4c c:/siliconlabs/simplicitystudio/v5/developer/toolchains/gnu_arm/10.3_2021.10/bin/../lib/gcc/arm-none-eabi/10.3.1/../../../../arm-none-eabi/lib/thumb/v8-m.main+fp/hard\libc_nano.a(lib_a-nano-mallocr.o)
 .debug_frame   0x0000453c       0x3c c:/siliconlabs/simplicitystudio/v5/developer/toolchains/gnu_arm/10.3_2021.10/bin/../lib/gcc/arm-none-eabi/10.3.1/../../../../arm-none-eabi/lib/thumb/v8-m.main+fp/hard\libc_nano.a(lib_a-nano-reallocr.o)
 .debug_frame   0x00004578       0x2c c:/siliconlabs/simplicitystudio/v5/developer/toolchains/gnu_arm/10.3_2021.10/bin/../lib/gcc/arm-none-eabi/10.3.1/../../../../arm-none-eabi/lib/thumb/v8-m.main+fp/hard\libc_nano.a(lib_a-sbrkr.o)
 .debug_frame   0x000045a4       0x30 c:/siliconlabs/simplicitystudio/v5/developer/toolchains/gnu_arm/10.3_2021.10/bin/../lib/gcc/arm-none-eabi/10.3.1/../../../../arm-none-eabi/lib/thumb/v8-m.main+fp/hard\libc_nano.a(lib_a-mlock.o)
 .debug_frame   0x000045d4       0x20 c:/siliconlabs/simplicitystudio/v5/developer/toolchains/gnu_arm/10.3_2021.10/bin/../lib/gcc/arm-none-eabi/10.3.1/../../../../arm-none-eabi/lib/thumb/v8-m.main+fp/hard\libc_nano.a(lib_a-nano-msizer.o)
 .debug_frame   0x000045f4       0x5c c:/siliconlabs/simplicitystudio/v5/developer/toolchains/gnu_arm/10.3_2021.10/bin/../lib/gcc/arm-none-eabi/10.3.1/../../../../arm-none-eabi/lib/thumb/v8-m.main+fp/hard\libc_nano.a(lib_a-reent.o)
 .debug_frame   0x00004650       0xb0 c:/siliconlabs/simplicitystudio/v5/developer/toolchains/gnu_arm/10.3_2021.10/bin/../lib/gcc/arm-none-eabi/10.3.1/../../../../arm-none-eabi/lib/thumb/v8-m.main+fp/hard\libc_nano.a(lib_a-lock.o)
 .debug_frame   0x00004700       0x20 c:/siliconlabs/simplicitystudio/v5/developer/toolchains/gnu_arm/10.3_2021.10/bin/../lib/gcc/arm-none-eabi/10.3.1/../../../../arm-none-eabi/lib/thumb/v8-m.main+fp/hard\libnosys.a(_exit.o)
